
chocolateFrog:     file format elf32-i386

Sections:
Idx Name          Size      VMA       LMA       File off  Algn
  0 .interp       00000013  08048134  08048134  00000134  2**0
                  CONTENTS, ALLOC, LOAD, READONLY, DATA
  1 .note.ABI-tag 00000020  08048148  08048148  00000148  2**2
                  CONTENTS, ALLOC, LOAD, READONLY, DATA
  2 .note.gnu.build-id 00000024  08048168  08048168  00000168  2**2
                  CONTENTS, ALLOC, LOAD, READONLY, DATA
  3 .gnu.hash     00000034  0804818c  0804818c  0000018c  2**2
                  CONTENTS, ALLOC, LOAD, READONLY, DATA
  4 .dynsym       00000210  080481c0  080481c0  000001c0  2**2
                  CONTENTS, ALLOC, LOAD, READONLY, DATA
  5 .dynstr       000001fc  080483d0  080483d0  000003d0  2**0
                  CONTENTS, ALLOC, LOAD, READONLY, DATA
  6 .gnu.version  00000042  080485cc  080485cc  000005cc  2**1
                  CONTENTS, ALLOC, LOAD, READONLY, DATA
  7 .gnu.version_r 00000080  08048610  08048610  00000610  2**2
                  CONTENTS, ALLOC, LOAD, READONLY, DATA
  8 .rel.dyn      00000020  08048690  08048690  00000690  2**2
                  CONTENTS, ALLOC, LOAD, READONLY, DATA
  9 .rel.plt      000000c8  080486b0  080486b0  000006b0  2**2
                  CONTENTS, ALLOC, LOAD, READONLY, DATA
 10 .init         00000023  08048778  08048778  00000778  2**2
                  CONTENTS, ALLOC, LOAD, READONLY, CODE
 11 .plt          000001a0  080487a0  080487a0  000007a0  2**4
                  CONTENTS, ALLOC, LOAD, READONLY, CODE
 12 .text         000018a2  08048940  08048940  00000940  2**4
                  CONTENTS, ALLOC, LOAD, READONLY, CODE
 13 .fini         00000014  0804a1e4  0804a1e4  000021e4  2**2
                  CONTENTS, ALLOC, LOAD, READONLY, CODE
 14 .rodata       00000934  0804a1f8  0804a1f8  000021f8  2**3
                  CONTENTS, ALLOC, LOAD, READONLY, DATA
 15 .eh_frame_hdr 0000026c  0804ab2c  0804ab2c  00002b2c  2**2
                  CONTENTS, ALLOC, LOAD, READONLY, DATA
 16 .eh_frame     00000a48  0804ad98  0804ad98  00002d98  2**2
                  CONTENTS, ALLOC, LOAD, READONLY, DATA
 17 .gcc_except_table 00000060  0804b7e0  0804b7e0  000037e0  2**2
                  CONTENTS, ALLOC, LOAD, READONLY, DATA
 18 .init_array   00000008  0804c840  0804c840  00003840  2**2
                  CONTENTS, ALLOC, LOAD, DATA
 19 .fini_array   00000004  0804c848  0804c848  00003848  2**2
                  CONTENTS, ALLOC, LOAD, DATA
 20 .jcr          00000004  0804c84c  0804c84c  0000384c  2**2
                  CONTENTS, ALLOC, LOAD, DATA
 21 .dynamic      00000100  0804c850  0804c850  00003850  2**2
                  CONTENTS, ALLOC, LOAD, DATA
 22 .got          00000004  0804c950  0804c950  00003950  2**2
                  CONTENTS, ALLOC, LOAD, DATA
 23 .got.plt      00000070  0804c954  0804c954  00003954  2**2
                  CONTENTS, ALLOC, LOAD, DATA
 24 .data         00000008  0804c9c4  0804c9c4  000039c4  2**2
                  CONTENTS, ALLOC, LOAD, DATA
 25 .bss          00000090  0804c9e0  0804c9e0  000039cc  2**5
                  ALLOC
 26 .comment      00000039  00000000  00000000  000039cc  2**0
                  CONTENTS, READONLY

chocolateFrog:     file format elf32-i386


Disassembly of section .init:

08048778 <_init>:
 8048778:	53                   	push   %ebx
 8048779:	83 ec 08             	sub    $0x8,%esp
 804877c:	e8 ef 01 00 00       	call   8048970 <__x86.get_pc_thunk.bx>
 8048781:	81 c3 d3 41 00 00    	add    $0x41d3,%ebx
 8048787:	8b 83 fc ff ff ff    	mov    -0x4(%ebx),%eax
 804878d:	85 c0                	test   %eax,%eax
 804878f:	74 05                	je     8048796 <_init+0x1e>
 8048791:	e8 6a 00 00 00       	call   8048800 <__gmon_start__@plt>
 8048796:	83 c4 08             	add    $0x8,%esp
 8048799:	5b                   	pop    %ebx
 804879a:	c3                   	ret    

Disassembly of section .plt:

080487a0 <.plt>:
 80487a0:	ff 35 58 c9 04 08    	pushl  0x804c958
 80487a6:	ff 25 5c c9 04 08    	jmp    *0x804c95c
 80487ac:	00 00                	add    %al,(%eax)
	...

080487b0 <_ZSt20__throw_length_errorPKc@plt>:
 80487b0:	ff 25 60 c9 04 08    	jmp    *0x804c960
 80487b6:	68 00 00 00 00       	push   $0x0
 80487bb:	e9 e0 ff ff ff       	jmp    80487a0 <.plt>

080487c0 <srand@plt>:
 80487c0:	ff 25 64 c9 04 08    	jmp    *0x804c964
 80487c6:	68 08 00 00 00       	push   $0x8
 80487cb:	e9 d0 ff ff ff       	jmp    80487a0 <.plt>

080487d0 <open@plt>:
 80487d0:	ff 25 68 c9 04 08    	jmp    *0x804c968
 80487d6:	68 10 00 00 00       	push   $0x10
 80487db:	e9 c0 ff ff ff       	jmp    80487a0 <.plt>

080487e0 <setbuf@plt>:
 80487e0:	ff 25 6c c9 04 08    	jmp    *0x804c96c
 80487e6:	68 18 00 00 00       	push   $0x18
 80487eb:	e9 b0 ff ff ff       	jmp    80487a0 <.plt>

080487f0 <__cxa_atexit@plt>:
 80487f0:	ff 25 70 c9 04 08    	jmp    *0x804c970
 80487f6:	68 20 00 00 00       	push   $0x20
 80487fb:	e9 a0 ff ff ff       	jmp    80487a0 <.plt>

08048800 <__gmon_start__@plt>:
 8048800:	ff 25 74 c9 04 08    	jmp    *0x804c974
 8048806:	68 28 00 00 00       	push   $0x28
 804880b:	e9 90 ff ff ff       	jmp    80487a0 <.plt>

08048810 <_ZdlPv@plt>:
 8048810:	ff 25 78 c9 04 08    	jmp    *0x804c978
 8048816:	68 30 00 00 00       	push   $0x30
 804881b:	e9 80 ff ff ff       	jmp    80487a0 <.plt>

08048820 <__cxa_rethrow@plt>:
 8048820:	ff 25 7c c9 04 08    	jmp    *0x804c97c
 8048826:	68 38 00 00 00       	push   $0x38
 804882b:	e9 70 ff ff ff       	jmp    80487a0 <.plt>

08048830 <fgets@plt>:
 8048830:	ff 25 80 c9 04 08    	jmp    *0x804c980
 8048836:	68 40 00 00 00       	push   $0x40
 804883b:	e9 60 ff ff ff       	jmp    80487a0 <.plt>

08048840 <__libc_start_main@plt>:
 8048840:	ff 25 84 c9 04 08    	jmp    *0x804c984
 8048846:	68 48 00 00 00       	push   $0x48
 804884b:	e9 50 ff ff ff       	jmp    80487a0 <.plt>

08048850 <read@plt>:
 8048850:	ff 25 88 c9 04 08    	jmp    *0x804c988
 8048856:	68 50 00 00 00       	push   $0x50
 804885b:	e9 40 ff ff ff       	jmp    80487a0 <.plt>

08048860 <printf@plt>:
 8048860:	ff 25 8c c9 04 08    	jmp    *0x804c98c
 8048866:	68 58 00 00 00       	push   $0x58
 804886b:	e9 30 ff ff ff       	jmp    80487a0 <.plt>

08048870 <_Znwj@plt>:
 8048870:	ff 25 90 c9 04 08    	jmp    *0x804c990
 8048876:	68 60 00 00 00       	push   $0x60
 804887b:	e9 20 ff ff ff       	jmp    80487a0 <.plt>

08048880 <close@plt>:
 8048880:	ff 25 94 c9 04 08    	jmp    *0x804c994
 8048886:	68 68 00 00 00       	push   $0x68
 804888b:	e9 10 ff ff ff       	jmp    80487a0 <.plt>

08048890 <time@plt>:
 8048890:	ff 25 98 c9 04 08    	jmp    *0x804c998
 8048896:	68 70 00 00 00       	push   $0x70
 804889b:	e9 00 ff ff ff       	jmp    80487a0 <.plt>

080488a0 <memmove@plt>:
 80488a0:	ff 25 9c c9 04 08    	jmp    *0x804c99c
 80488a6:	68 78 00 00 00       	push   $0x78
 80488ab:	e9 f0 fe ff ff       	jmp    80487a0 <.plt>

080488b0 <puts@plt>:
 80488b0:	ff 25 a0 c9 04 08    	jmp    *0x804c9a0
 80488b6:	68 80 00 00 00       	push   $0x80
 80488bb:	e9 e0 fe ff ff       	jmp    80487a0 <.plt>

080488c0 <__cxa_end_catch@plt>:
 80488c0:	ff 25 a4 c9 04 08    	jmp    *0x804c9a4
 80488c6:	68 88 00 00 00       	push   $0x88
 80488cb:	e9 d0 fe ff ff       	jmp    80487a0 <.plt>

080488d0 <_ZSt17__throw_bad_allocv@plt>:
 80488d0:	ff 25 a8 c9 04 08    	jmp    *0x804c9a8
 80488d6:	68 90 00 00 00       	push   $0x90
 80488db:	e9 c0 fe ff ff       	jmp    80487a0 <.plt>

080488e0 <rand@plt>:
 80488e0:	ff 25 ac c9 04 08    	jmp    *0x804c9ac
 80488e6:	68 98 00 00 00       	push   $0x98
 80488eb:	e9 b0 fe ff ff       	jmp    80487a0 <.plt>

080488f0 <sscanf@plt>:
 80488f0:	ff 25 b0 c9 04 08    	jmp    *0x804c9b0
 80488f6:	68 a0 00 00 00       	push   $0xa0
 80488fb:	e9 a0 fe ff ff       	jmp    80487a0 <.plt>

08048900 <__cxa_begin_catch@plt>:
 8048900:	ff 25 b4 c9 04 08    	jmp    *0x804c9b4
 8048906:	68 a8 00 00 00       	push   $0xa8
 804890b:	e9 90 fe ff ff       	jmp    80487a0 <.plt>

08048910 <__gxx_personality_v0@plt>:
 8048910:	ff 25 b8 c9 04 08    	jmp    *0x804c9b8
 8048916:	68 b0 00 00 00       	push   $0xb0
 804891b:	e9 80 fe ff ff       	jmp    80487a0 <.plt>

08048920 <_Unwind_Resume@plt>:
 8048920:	ff 25 bc c9 04 08    	jmp    *0x804c9bc
 8048926:	68 b8 00 00 00       	push   $0xb8
 804892b:	e9 70 fe ff ff       	jmp    80487a0 <.plt>

08048930 <exit@plt>:
 8048930:	ff 25 c0 c9 04 08    	jmp    *0x804c9c0
 8048936:	68 c0 00 00 00       	push   $0xc0
 804893b:	e9 60 fe ff ff       	jmp    80487a0 <.plt>

Disassembly of section .text:

08048940 <_start>:
 8048940:	31 ed                	xor    %ebp,%ebp
 8048942:	5e                   	pop    %esi
 8048943:	89 e1                	mov    %esp,%ecx
 8048945:	83 e4 f0             	and    $0xfffffff0,%esp
 8048948:	50                   	push   %eax
 8048949:	54                   	push   %esp
 804894a:	52                   	push   %edx
 804894b:	68 e0 a1 04 08       	push   $0x804a1e0
 8048950:	68 70 a1 04 08       	push   $0x804a170
 8048955:	51                   	push   %ecx
 8048956:	56                   	push   %esi
 8048957:	68 de 92 04 08       	push   $0x80492de
 804895c:	e8 df fe ff ff       	call   8048840 <__libc_start_main@plt>
 8048961:	f4                   	hlt    
 8048962:	66 90                	xchg   %ax,%ax
 8048964:	66 90                	xchg   %ax,%ax
 8048966:	66 90                	xchg   %ax,%ax
 8048968:	66 90                	xchg   %ax,%ax
 804896a:	66 90                	xchg   %ax,%ax
 804896c:	66 90                	xchg   %ax,%ax
 804896e:	66 90                	xchg   %ax,%ax

08048970 <__x86.get_pc_thunk.bx>:
 8048970:	8b 1c 24             	mov    (%esp),%ebx
 8048973:	c3                   	ret    
 8048974:	66 90                	xchg   %ax,%ax
 8048976:	66 90                	xchg   %ax,%ax
 8048978:	66 90                	xchg   %ax,%ax
 804897a:	66 90                	xchg   %ax,%ax
 804897c:	66 90                	xchg   %ax,%ax
 804897e:	66 90                	xchg   %ax,%ax

08048980 <deregister_tm_clones>:
 8048980:	b8 cf c9 04 08       	mov    $0x804c9cf,%eax
 8048985:	2d cc c9 04 08       	sub    $0x804c9cc,%eax
 804898a:	83 f8 06             	cmp    $0x6,%eax
 804898d:	76 1a                	jbe    80489a9 <deregister_tm_clones+0x29>
 804898f:	b8 00 00 00 00       	mov    $0x0,%eax
 8048994:	85 c0                	test   %eax,%eax
 8048996:	74 11                	je     80489a9 <deregister_tm_clones+0x29>
 8048998:	55                   	push   %ebp
 8048999:	89 e5                	mov    %esp,%ebp
 804899b:	83 ec 14             	sub    $0x14,%esp
 804899e:	68 cc c9 04 08       	push   $0x804c9cc
 80489a3:	ff d0                	call   *%eax
 80489a5:	83 c4 10             	add    $0x10,%esp
 80489a8:	c9                   	leave  
 80489a9:	f3 c3                	repz ret 
 80489ab:	90                   	nop
 80489ac:	8d 74 26 00          	lea    0x0(%esi,%eiz,1),%esi

080489b0 <register_tm_clones>:
 80489b0:	b8 cc c9 04 08       	mov    $0x804c9cc,%eax
 80489b5:	2d cc c9 04 08       	sub    $0x804c9cc,%eax
 80489ba:	c1 f8 02             	sar    $0x2,%eax
 80489bd:	89 c2                	mov    %eax,%edx
 80489bf:	c1 ea 1f             	shr    $0x1f,%edx
 80489c2:	01 d0                	add    %edx,%eax
 80489c4:	d1 f8                	sar    %eax
 80489c6:	74 1b                	je     80489e3 <register_tm_clones+0x33>
 80489c8:	ba 00 00 00 00       	mov    $0x0,%edx
 80489cd:	85 d2                	test   %edx,%edx
 80489cf:	74 12                	je     80489e3 <register_tm_clones+0x33>
 80489d1:	55                   	push   %ebp
 80489d2:	89 e5                	mov    %esp,%ebp
 80489d4:	83 ec 10             	sub    $0x10,%esp
 80489d7:	50                   	push   %eax
 80489d8:	68 cc c9 04 08       	push   $0x804c9cc
 80489dd:	ff d2                	call   *%edx
 80489df:	83 c4 10             	add    $0x10,%esp
 80489e2:	c9                   	leave  
 80489e3:	f3 c3                	repz ret 
 80489e5:	8d 74 26 00          	lea    0x0(%esi,%eiz,1),%esi
 80489e9:	8d bc 27 00 00 00 00 	lea    0x0(%edi,%eiz,1),%edi

080489f0 <__do_global_dtors_aux>:
 80489f0:	80 3d 24 ca 04 08 00 	cmpb   $0x0,0x804ca24
 80489f7:	75 13                	jne    8048a0c <__do_global_dtors_aux+0x1c>
 80489f9:	55                   	push   %ebp
 80489fa:	89 e5                	mov    %esp,%ebp
 80489fc:	83 ec 08             	sub    $0x8,%esp
 80489ff:	e8 7c ff ff ff       	call   8048980 <deregister_tm_clones>
 8048a04:	c6 05 24 ca 04 08 01 	movb   $0x1,0x804ca24
 8048a0b:	c9                   	leave  
 8048a0c:	f3 c3                	repz ret 
 8048a0e:	66 90                	xchg   %ax,%ax

08048a10 <frame_dummy>:
 8048a10:	b8 4c c8 04 08       	mov    $0x804c84c,%eax
 8048a15:	8b 10                	mov    (%eax),%edx
 8048a17:	85 d2                	test   %edx,%edx
 8048a19:	75 05                	jne    8048a20 <frame_dummy+0x10>
 8048a1b:	eb 93                	jmp    80489b0 <register_tm_clones>
 8048a1d:	8d 76 00             	lea    0x0(%esi),%esi
 8048a20:	ba 00 00 00 00       	mov    $0x0,%edx
 8048a25:	85 d2                	test   %edx,%edx
 8048a27:	74 f2                	je     8048a1b <frame_dummy+0xb>
 8048a29:	55                   	push   %ebp
 8048a2a:	89 e5                	mov    %esp,%ebp
 8048a2c:	83 ec 14             	sub    $0x14,%esp
 8048a2f:	50                   	push   %eax
 8048a30:	ff d2                	call   *%edx
 8048a32:	83 c4 10             	add    $0x10,%esp
 8048a35:	c9                   	leave  
 8048a36:	e9 75 ff ff ff       	jmp    80489b0 <register_tm_clones>

08048a3b <_Z13get_your_flagv>:
 8048a3b:	55                   	push   %ebp
 8048a3c:	89 e5                	mov    %esp,%ebp
 8048a3e:	83 ec 18             	sub    $0x18,%esp
 8048a41:	c7 45 ec 00 00 00 00 	movl   $0x0,-0x14(%ebp)
 8048a48:	83 ec 08             	sub    $0x8,%esp
 8048a4b:	6a 00                	push   $0x0
 8048a4d:	68 09 a2 04 08       	push   $0x804a209
 8048a52:	e8 79 fd ff ff       	call   80487d0 <open@plt>
 8048a57:	83 c4 10             	add    $0x10,%esp
 8048a5a:	89 45 f0             	mov    %eax,-0x10(%ebp)
 8048a5d:	83 7d f0 ff          	cmpl   $0xffffffff,-0x10(%ebp)
 8048a61:	75 1a                	jne    8048a7d <_Z13get_your_flagv+0x42>
 8048a63:	83 ec 0c             	sub    $0xc,%esp
 8048a66:	68 0f a2 04 08       	push   $0x804a20f
 8048a6b:	e8 40 fe ff ff       	call   80488b0 <puts@plt>
 8048a70:	83 c4 10             	add    $0x10,%esp
 8048a73:	83 ec 0c             	sub    $0xc,%esp
 8048a76:	6a 01                	push   $0x1
 8048a78:	e8 b3 fe ff ff       	call   8048930 <exit@plt>
 8048a7d:	83 ec 04             	sub    $0x4,%esp
 8048a80:	6a 20                	push   $0x20
 8048a82:	68 40 ca 04 08       	push   $0x804ca40
 8048a87:	ff 75 f0             	pushl  -0x10(%ebp)
 8048a8a:	e8 c1 fd ff ff       	call   8048850 <read@plt>
 8048a8f:	83 c4 10             	add    $0x10,%esp
 8048a92:	89 45 ec             	mov    %eax,-0x14(%ebp)
 8048a95:	83 7d ec ff          	cmpl   $0xffffffff,-0x14(%ebp)
 8048a99:	75 0a                	jne    8048aa5 <_Z13get_your_flagv+0x6a>
 8048a9b:	83 ec 0c             	sub    $0xc,%esp
 8048a9e:	6a 01                	push   $0x1
 8048aa0:	e8 8b fe ff ff       	call   8048930 <exit@plt>
 8048aa5:	eb 35                	jmp    8048adc <_Z13get_your_flagv+0xa1>
 8048aa7:	b8 20 00 00 00       	mov    $0x20,%eax
 8048aac:	2b 45 ec             	sub    -0x14(%ebp),%eax
 8048aaf:	83 ec 04             	sub    $0x4,%esp
 8048ab2:	50                   	push   %eax
 8048ab3:	68 40 ca 04 08       	push   $0x804ca40
 8048ab8:	ff 75 f0             	pushl  -0x10(%ebp)
 8048abb:	e8 90 fd ff ff       	call   8048850 <read@plt>
 8048ac0:	83 c4 10             	add    $0x10,%esp
 8048ac3:	89 45 f4             	mov    %eax,-0xc(%ebp)
 8048ac6:	83 7d f4 00          	cmpl   $0x0,-0xc(%ebp)
 8048aca:	7f 0a                	jg     8048ad6 <_Z13get_your_flagv+0x9b>
 8048acc:	83 ec 0c             	sub    $0xc,%esp
 8048acf:	6a 01                	push   $0x1
 8048ad1:	e8 5a fe ff ff       	call   8048930 <exit@plt>
 8048ad6:	8b 45 f4             	mov    -0xc(%ebp),%eax
 8048ad9:	01 45 ec             	add    %eax,-0x14(%ebp)
 8048adc:	83 7d ec 1f          	cmpl   $0x1f,-0x14(%ebp)
 8048ae0:	7e c5                	jle    8048aa7 <_Z13get_your_flagv+0x6c>
 8048ae2:	83 ec 0c             	sub    $0xc,%esp
 8048ae5:	ff 75 f0             	pushl  -0x10(%ebp)
 8048ae8:	e8 93 fd ff ff       	call   8048880 <close@plt>
 8048aed:	83 c4 10             	add    $0x10,%esp
 8048af0:	c6 05 60 ca 04 08 00 	movb   $0x0,0x804ca60
 8048af7:	83 ec 08             	sub    $0x8,%esp
 8048afa:	68 40 ca 04 08       	push   $0x804ca40
 8048aff:	68 2c a2 04 08       	push   $0x804a22c
 8048b04:	e8 57 fd ff ff       	call   8048860 <printf@plt>
 8048b09:	83 c4 10             	add    $0x10,%esp
 8048b0c:	90                   	nop
 8048b0d:	c9                   	leave  
 8048b0e:	c3                   	ret    

08048b0f <_Z7welcomev>:
 8048b0f:	55                   	push   %ebp
 8048b10:	89 e5                	mov    %esp,%ebp
 8048b12:	83 ec 08             	sub    $0x8,%esp
 8048b15:	83 ec 0c             	sub    $0xc,%esp
 8048b18:	68 48 a2 04 08       	push   $0x804a248
 8048b1d:	e8 8e fd ff ff       	call   80488b0 <puts@plt>
 8048b22:	83 c4 10             	add    $0x10,%esp
 8048b25:	83 ec 0c             	sub    $0xc,%esp
 8048b28:	68 80 a2 04 08       	push   $0x804a280
 8048b2d:	e8 7e fd ff ff       	call   80488b0 <puts@plt>
 8048b32:	83 c4 10             	add    $0x10,%esp
 8048b35:	83 ec 0c             	sub    $0xc,%esp
 8048b38:	68 04 a3 04 08       	push   $0x804a304
 8048b3d:	e8 6e fd ff ff       	call   80488b0 <puts@plt>
 8048b42:	83 c4 10             	add    $0x10,%esp
 8048b45:	c9                   	leave  
 8048b46:	c3                   	ret    

08048b47 <_Z12collect_cardv>:
 8048b47:	55                   	push   %ebp
 8048b48:	89 e5                	mov    %esp,%ebp
 8048b4a:	57                   	push   %edi
 8048b4b:	56                   	push   %esi
 8048b4c:	53                   	push   %ebx
 8048b4d:	83 ec 2c             	sub    $0x2c,%esp
 8048b50:	83 ec 0c             	sub    $0xc,%esp
 8048b53:	68 d4 a3 04 08       	push   $0x804a3d4
 8048b58:	e8 53 fd ff ff       	call   80488b0 <puts@plt>
 8048b5d:	83 c4 10             	add    $0x10,%esp
 8048b60:	a1 0c ca 04 08       	mov    0x804ca0c,%eax
 8048b65:	83 ec 04             	sub    $0x4,%esp
 8048b68:	50                   	push   %eax
 8048b69:	6a 04                	push   $0x4
 8048b6b:	8d 45 e4             	lea    -0x1c(%ebp),%eax
 8048b6e:	50                   	push   %eax
 8048b6f:	e8 bc fc ff ff       	call   8048830 <fgets@plt>
 8048b74:	83 c4 10             	add    $0x10,%esp
 8048b77:	83 ec 04             	sub    $0x4,%esp
 8048b7a:	8d 45 d4             	lea    -0x2c(%ebp),%eax
 8048b7d:	50                   	push   %eax
 8048b7e:	68 5e a4 04 08       	push   $0x804a45e
 8048b83:	8d 45 e4             	lea    -0x1c(%ebp),%eax
 8048b86:	50                   	push   %eax
 8048b87:	e8 64 fd ff ff       	call   80488f0 <sscanf@plt>
 8048b8c:	83 c4 10             	add    $0x10,%esp
 8048b8f:	89 45 d8             	mov    %eax,-0x28(%ebp)
 8048b92:	83 7d d8 01          	cmpl   $0x1,-0x28(%ebp)
 8048b96:	74 0a                	je     8048ba2 <_Z12collect_cardv+0x5b>
 8048b98:	83 ec 0c             	sub    $0xc,%esp
 8048b9b:	6a 00                	push   $0x0
 8048b9d:	e8 8e fd ff ff       	call   8048930 <exit@plt>
 8048ba2:	83 ec 0c             	sub    $0xc,%esp
 8048ba5:	6a 00                	push   $0x0
 8048ba7:	e8 e4 fc ff ff       	call   8048890 <time@plt>
 8048bac:	83 c4 10             	add    $0x10,%esp
 8048baf:	83 ec 0c             	sub    $0xc,%esp
 8048bb2:	50                   	push   %eax
 8048bb3:	e8 08 fc ff ff       	call   80487c0 <srand@plt>
 8048bb8:	83 c4 10             	add    $0x10,%esp
 8048bbb:	e8 20 fd ff ff       	call   80488e0 <rand@plt>
 8048bc0:	89 c1                	mov    %eax,%ecx
 8048bc2:	ba 93 24 49 92       	mov    $0x92492493,%edx
 8048bc7:	89 c8                	mov    %ecx,%eax
 8048bc9:	f7 ea                	imul   %edx
 8048bcb:	8d 04 0a             	lea    (%edx,%ecx,1),%eax
 8048bce:	c1 f8 02             	sar    $0x2,%eax
 8048bd1:	89 c2                	mov    %eax,%edx
 8048bd3:	89 c8                	mov    %ecx,%eax
 8048bd5:	c1 f8 1f             	sar    $0x1f,%eax
 8048bd8:	29 c2                	sub    %eax,%edx
 8048bda:	89 d0                	mov    %edx,%eax
 8048bdc:	89 c2                	mov    %eax,%edx
 8048bde:	c1 e2 03             	shl    $0x3,%edx
 8048be1:	29 c2                	sub    %eax,%edx
 8048be3:	89 c8                	mov    %ecx,%eax
 8048be5:	29 d0                	sub    %edx,%eax
 8048be7:	83 c0 01             	add    $0x1,%eax
 8048bea:	89 45 dc             	mov    %eax,-0x24(%ebp)
 8048bed:	8b 45 d4             	mov    -0x2c(%ebp),%eax
 8048bf0:	3b 45 dc             	cmp    -0x24(%ebp),%eax
 8048bf3:	0f 85 3b 03 00 00    	jne    8048f34 <_Z12collect_cardv+0x3ed>
 8048bf9:	83 ec 0c             	sub    $0xc,%esp
 8048bfc:	68 a8 01 00 00       	push   $0x1a8
 8048c01:	e8 6a fc ff ff       	call   8048870 <_Znwj@plt>
 8048c06:	83 c4 10             	add    $0x10,%esp
 8048c09:	89 c3                	mov    %eax,%ebx
 8048c0b:	89 de                	mov    %ebx,%esi
 8048c0d:	b8 00 00 00 00       	mov    $0x0,%eax
 8048c12:	ba 6a 00 00 00       	mov    $0x6a,%edx
 8048c17:	89 f7                	mov    %esi,%edi
 8048c19:	89 d1                	mov    %edx,%ecx
 8048c1b:	f3 ab                	rep stos %eax,%es:(%edi)
 8048c1d:	83 ec 0c             	sub    $0xc,%esp
 8048c20:	53                   	push   %ebx
 8048c21:	e8 fc 08 00 00       	call   8049522 <_ZN4cardC1Ev>
 8048c26:	83 c4 10             	add    $0x10,%esp
 8048c29:	89 5d e0             	mov    %ebx,-0x20(%ebp)
 8048c2c:	8b 45 d4             	mov    -0x2c(%ebp),%eax
 8048c2f:	83 f8 07             	cmp    $0x7,%eax
 8048c32:	0f 87 de 02 00 00    	ja     8048f16 <_Z12collect_cardv+0x3cf>
 8048c38:	8b 04 85 94 a8 04 08 	mov    0x804a894(,%eax,4),%eax
 8048c3f:	ff e0                	jmp    *%eax
 8048c41:	8b 45 e0             	mov    -0x20(%ebp),%eax
 8048c44:	05 94 01 00 00       	add    $0x194,%eax
 8048c49:	c7 00 41 6c 62 65    	movl   $0x65626c41,(%eax)
 8048c4f:	c7 40 04 72 74 61 20 	movl   $0x20617472,0x4(%eax)
 8048c56:	c7 40 08 54 6f 6f 74 	movl   $0x746f6f54,0x8(%eax)
 8048c5d:	c7 40 0c 68 69 6c 6c 	movl   $0x6c6c6968,0xc(%eax)
 8048c64:	c6 40 10 00          	movb   $0x0,0x10(%eax)
 8048c68:	8b 45 e0             	mov    -0x20(%ebp),%eax
 8048c6b:	83 c0 04             	add    $0x4,%eax
 8048c6e:	bb 64 a4 04 08       	mov    $0x804a464,%ebx
 8048c73:	ba a5 00 00 00       	mov    $0xa5,%edx
 8048c78:	8b 0b                	mov    (%ebx),%ecx
 8048c7a:	89 08                	mov    %ecx,(%eax)
 8048c7c:	8b 4c 13 fc          	mov    -0x4(%ebx,%edx,1),%ecx
 8048c80:	89 4c 10 fc          	mov    %ecx,-0x4(%eax,%edx,1)
 8048c84:	8d 78 04             	lea    0x4(%eax),%edi
 8048c87:	83 e7 fc             	and    $0xfffffffc,%edi
 8048c8a:	29 f8                	sub    %edi,%eax
 8048c8c:	29 c3                	sub    %eax,%ebx
 8048c8e:	01 c2                	add    %eax,%edx
 8048c90:	83 e2 fc             	and    $0xfffffffc,%edx
 8048c93:	89 d0                	mov    %edx,%eax
 8048c95:	c1 e8 02             	shr    $0x2,%eax
 8048c98:	89 de                	mov    %ebx,%esi
 8048c9a:	89 c1                	mov    %eax,%ecx
 8048c9c:	f3 a5                	rep movsl %ds:(%esi),%es:(%edi)
 8048c9e:	e9 73 02 00 00       	jmp    8048f16 <_Z12collect_cardv+0x3cf>
 8048ca3:	8b 45 e0             	mov    -0x20(%ebp),%eax
 8048ca6:	05 94 01 00 00       	add    $0x194,%eax
 8048cab:	c7 00 48 65 6c 67    	movl   $0x676c6548,(%eax)
 8048cb1:	c7 40 04 61 20 48 75 	movl   $0x75482061,0x4(%eax)
 8048cb8:	c7 40 08 66 66 6c 65 	movl   $0x656c6666,0x8(%eax)
 8048cbf:	c7 40 0c 70 75 66 66 	movl   $0x66667570,0xc(%eax)
 8048cc6:	c6 40 10 00          	movb   $0x0,0x10(%eax)
 8048cca:	8b 45 e0             	mov    -0x20(%ebp),%eax
 8048ccd:	83 c0 04             	add    $0x4,%eax
 8048cd0:	bb 0c a5 04 08       	mov    $0x804a50c,%ebx
 8048cd5:	ba f0 00 00 00       	mov    $0xf0,%edx
 8048cda:	8b 0b                	mov    (%ebx),%ecx
 8048cdc:	89 08                	mov    %ecx,(%eax)
 8048cde:	8b 4c 13 fc          	mov    -0x4(%ebx,%edx,1),%ecx
 8048ce2:	89 4c 10 fc          	mov    %ecx,-0x4(%eax,%edx,1)
 8048ce6:	8d 78 04             	lea    0x4(%eax),%edi
 8048ce9:	83 e7 fc             	and    $0xfffffffc,%edi
 8048cec:	29 f8                	sub    %edi,%eax
 8048cee:	29 c3                	sub    %eax,%ebx
 8048cf0:	01 c2                	add    %eax,%edx
 8048cf2:	83 e2 fc             	and    $0xfffffffc,%edx
 8048cf5:	89 d0                	mov    %edx,%eax
 8048cf7:	c1 e8 02             	shr    $0x2,%eax
 8048cfa:	89 de                	mov    %ebx,%esi
 8048cfc:	89 c1                	mov    %eax,%ecx
 8048cfe:	f3 a5                	rep movsl %ds:(%esi),%es:(%edi)
 8048d00:	e9 11 02 00 00       	jmp    8048f16 <_Z12collect_cardv+0x3cf>
 8048d05:	8b 45 e0             	mov    -0x20(%ebp),%eax
 8048d08:	05 94 01 00 00       	add    $0x194,%eax
 8048d0d:	c7 00 42 65 61 75    	movl   $0x75616542,(%eax)
 8048d13:	c7 40 04 6d 6f 6e 74 	movl   $0x746e6f6d,0x4(%eax)
 8048d1a:	c7 40 08 20 4d 61 6a 	movl   $0x6a614d20,0x8(%eax)
 8048d21:	c7 40 0c 6f 72 69 62 	movl   $0x6269726f,0xc(%eax)
 8048d28:	c7 40 10 61 6e 6b 73 	movl   $0x736b6e61,0x10(%eax)
 8048d2f:	c6 40 14 00          	movb   $0x0,0x14(%eax)
 8048d33:	8b 45 e0             	mov    -0x20(%ebp),%eax
 8048d36:	83 c0 04             	add    $0x4,%eax
 8048d39:	bb fc a5 04 08       	mov    $0x804a5fc,%ebx
 8048d3e:	ba 83 00 00 00       	mov    $0x83,%edx
 8048d43:	8b 0b                	mov    (%ebx),%ecx
 8048d45:	89 08                	mov    %ecx,(%eax)
 8048d47:	8b 4c 13 fc          	mov    -0x4(%ebx,%edx,1),%ecx
 8048d4b:	89 4c 10 fc          	mov    %ecx,-0x4(%eax,%edx,1)
 8048d4f:	8d 78 04             	lea    0x4(%eax),%edi
 8048d52:	83 e7 fc             	and    $0xfffffffc,%edi
 8048d55:	29 f8                	sub    %edi,%eax
 8048d57:	29 c3                	sub    %eax,%ebx
 8048d59:	01 c2                	add    %eax,%edx
 8048d5b:	83 e2 fc             	and    $0xfffffffc,%edx
 8048d5e:	89 d0                	mov    %edx,%eax
 8048d60:	c1 e8 02             	shr    $0x2,%eax
 8048d63:	89 de                	mov    %ebx,%esi
 8048d65:	89 c1                	mov    %eax,%ecx
 8048d67:	f3 a5                	rep movsl %ds:(%esi),%es:(%edi)
 8048d69:	e9 a8 01 00 00       	jmp    8048f16 <_Z12collect_cardv+0x3cf>
 8048d6e:	8b 45 e0             	mov    -0x20(%ebp),%eax
 8048d71:	05 94 01 00 00       	add    $0x194,%eax
 8048d76:	c7 00 42 65 72 74    	movl   $0x74726542,(%eax)
 8048d7c:	c7 40 04 69 65 20 42 	movl   $0x42206569,0x4(%eax)
 8048d83:	c7 40 08 6f 74 74 00 	movl   $0x74746f,0x8(%eax)
 8048d8a:	8b 45 e0             	mov    -0x20(%ebp),%eax
 8048d8d:	83 c0 04             	add    $0x4,%eax
 8048d90:	bb 80 a6 04 08       	mov    $0x804a680,%ebx
 8048d95:	ba 50 00 00 00       	mov    $0x50,%edx
 8048d9a:	8b 0b                	mov    (%ebx),%ecx
 8048d9c:	89 08                	mov    %ecx,(%eax)
 8048d9e:	8b 4c 13 fc          	mov    -0x4(%ebx,%edx,1),%ecx
 8048da2:	89 4c 10 fc          	mov    %ecx,-0x4(%eax,%edx,1)
 8048da6:	8d 78 04             	lea    0x4(%eax),%edi
 8048da9:	83 e7 fc             	and    $0xfffffffc,%edi
 8048dac:	29 f8                	sub    %edi,%eax
 8048dae:	29 c3                	sub    %eax,%ebx
 8048db0:	01 c2                	add    %eax,%edx
 8048db2:	83 e2 fc             	and    $0xfffffffc,%edx
 8048db5:	89 d0                	mov    %edx,%eax
 8048db7:	c1 e8 02             	shr    $0x2,%eax
 8048dba:	89 de                	mov    %ebx,%esi
 8048dbc:	89 c1                	mov    %eax,%ecx
 8048dbe:	f3 a5                	rep movsl %ds:(%esi),%es:(%edi)
 8048dc0:	e9 51 01 00 00       	jmp    8048f16 <_Z12collect_cardv+0x3cf>
 8048dc5:	8b 45 e0             	mov    -0x20(%ebp),%eax
 8048dc8:	05 94 01 00 00       	add    $0x194,%eax
 8048dcd:	c7 00 43 79 70 72    	movl   $0x72707943,(%eax)
 8048dd3:	c7 40 04 69 61 6e 20 	movl   $0x206e6169,0x4(%eax)
 8048dda:	c7 40 08 59 6f 75 64 	movl   $0x64756f59,0x8(%eax)
 8048de1:	66 c7 40 0c 6c 65    	movw   $0x656c,0xc(%eax)
 8048de7:	c6 40 0e 00          	movb   $0x0,0xe(%eax)
 8048deb:	8b 45 e0             	mov    -0x20(%ebp),%eax
 8048dee:	83 c0 04             	add    $0x4,%eax
 8048df1:	bb d0 a6 04 08       	mov    $0x804a6d0,%ebx
 8048df6:	ba 90 00 00 00       	mov    $0x90,%edx
 8048dfb:	8b 0b                	mov    (%ebx),%ecx
 8048dfd:	89 08                	mov    %ecx,(%eax)
 8048dff:	8b 4c 13 fc          	mov    -0x4(%ebx,%edx,1),%ecx
 8048e03:	89 4c 10 fc          	mov    %ecx,-0x4(%eax,%edx,1)
 8048e07:	8d 78 04             	lea    0x4(%eax),%edi
 8048e0a:	83 e7 fc             	and    $0xfffffffc,%edi
 8048e0d:	29 f8                	sub    %edi,%eax
 8048e0f:	29 c3                	sub    %eax,%ebx
 8048e11:	01 c2                	add    %eax,%edx
 8048e13:	83 e2 fc             	and    $0xfffffffc,%edx
 8048e16:	89 d0                	mov    %edx,%eax
 8048e18:	c1 e8 02             	shr    $0x2,%eax
 8048e1b:	89 de                	mov    %ebx,%esi
 8048e1d:	89 c1                	mov    %eax,%ecx
 8048e1f:	f3 a5                	rep movsl %ds:(%esi),%es:(%edi)
 8048e21:	e9 f0 00 00 00       	jmp    8048f16 <_Z12collect_cardv+0x3cf>
 8048e26:	8b 45 e0             	mov    -0x20(%ebp),%eax
 8048e29:	05 94 01 00 00       	add    $0x194,%eax
 8048e2e:	c7 00 47 6f 64 72    	movl   $0x72646f47,(%eax)
 8048e34:	c7 40 04 69 63 20 47 	movl   $0x47206369,0x4(%eax)
 8048e3b:	c7 40 08 72 79 66 66 	movl   $0x66667972,0x8(%eax)
 8048e42:	c7 40 0c 69 6e 64 6f 	movl   $0x6f646e69,0xc(%eax)
 8048e49:	66 c7 40 10 72 00    	movw   $0x72,0x10(%eax)
 8048e4f:	8b 45 e0             	mov    -0x20(%ebp),%eax
 8048e52:	83 c0 04             	add    $0x4,%eax
 8048e55:	bb 60 a7 04 08       	mov    $0x804a760,%ebx
 8048e5a:	ba e1 00 00 00       	mov    $0xe1,%edx
 8048e5f:	8b 0b                	mov    (%ebx),%ecx
 8048e61:	89 08                	mov    %ecx,(%eax)
 8048e63:	8b 4c 13 fc          	mov    -0x4(%ebx,%edx,1),%ecx
 8048e67:	89 4c 10 fc          	mov    %ecx,-0x4(%eax,%edx,1)
 8048e6b:	8d 78 04             	lea    0x4(%eax),%edi
 8048e6e:	83 e7 fc             	and    $0xfffffffc,%edi
 8048e71:	29 f8                	sub    %edi,%eax
 8048e73:	29 c3                	sub    %eax,%ebx
 8048e75:	01 c2                	add    %eax,%edx
 8048e77:	83 e2 fc             	and    $0xfffffffc,%edx
 8048e7a:	89 d0                	mov    %edx,%eax
 8048e7c:	c1 e8 02             	shr    $0x2,%eax
 8048e7f:	89 de                	mov    %ebx,%esi
 8048e81:	89 c1                	mov    %eax,%ecx
 8048e83:	f3 a5                	rep movsl %ds:(%esi),%es:(%edi)
 8048e85:	e9 8c 00 00 00       	jmp    8048f16 <_Z12collect_cardv+0x3cf>
 8048e8a:	8b 45 e0             	mov    -0x20(%ebp),%eax
 8048e8d:	05 94 01 00 00       	add    $0x194,%eax
 8048e92:	c7 00 41 6c 62 65    	movl   $0x65626c41,(%eax)
 8048e98:	c7 40 04 72 69 63 20 	movl   $0x20636972,0x4(%eax)
 8048e9f:	c7 40 08 47 72 75 6e 	movl   $0x6e757247,0x8(%eax)
 8048ea6:	c7 40 0c 6e 69 6f 6e 	movl   $0x6e6f696e,0xc(%eax)
 8048ead:	c6 40 10 00          	movb   $0x0,0x10(%eax)
 8048eb1:	8b 45 e0             	mov    -0x20(%ebp),%eax
 8048eb4:	83 c0 04             	add    $0x4,%eax
 8048eb7:	c7 00 54 68 69 73    	movl   $0x73696854,(%eax)
 8048ebd:	c7 40 04 20 6e 69 6e 	movl   $0x6e696e20,0x4(%eax)
 8048ec4:	c7 40 08 65 74 65 65 	movl   $0x65657465,0x8(%eax)
 8048ecb:	c7 40 0c 6e 74 68 2d 	movl   $0x2d68746e,0xc(%eax)
 8048ed2:	c7 40 10 63 65 6e 74 	movl   $0x746e6563,0x10(%eax)
 8048ed9:	c7 40 14 75 72 79 20 	movl   $0x20797275,0x14(%eax)
 8048ee0:	c7 40 18 77 69 7a 61 	movl   $0x617a6977,0x18(%eax)
 8048ee7:	c7 40 1c 72 64 20 69 	movl   $0x69206472,0x1c(%eax)
 8048eee:	c7 40 20 6e 76 65 6e 	movl   $0x6e65766e,0x20(%eax)
 8048ef5:	c7 40 24 74 65 64 20 	movl   $0x20646574,0x24(%eax)
 8048efc:	c7 40 28 74 68 65 20 	movl   $0x20656874,0x28(%eax)
 8048f03:	c7 40 2c 44 75 6e 67 	movl   $0x676e7544,0x2c(%eax)
 8048f0a:	c7 40 30 62 6f 6d 62 	movl   $0x626d6f62,0x30(%eax)
 8048f11:	c6 40 34 00          	movb   $0x0,0x34(%eax)
 8048f15:	90                   	nop
 8048f16:	8b 45 e0             	mov    -0x20(%ebp),%eax
 8048f19:	05 94 01 00 00       	add    $0x194,%eax
 8048f1e:	83 ec 08             	sub    $0x8,%esp
 8048f21:	50                   	push   %eax
 8048f22:	68 44 a8 04 08       	push   $0x804a844
 8048f27:	e8 34 f9 ff ff       	call   8048860 <printf@plt>
 8048f2c:	83 c4 10             	add    $0x10,%esp
 8048f2f:	8b 45 e0             	mov    -0x20(%ebp),%eax
 8048f32:	eb 15                	jmp    8048f49 <_Z12collect_cardv+0x402>
 8048f34:	83 ec 0c             	sub    $0xc,%esp
 8048f37:	68 7c a8 04 08       	push   $0x804a87c
 8048f3c:	e8 6f f9 ff ff       	call   80488b0 <puts@plt>
 8048f41:	83 c4 10             	add    $0x10,%esp
 8048f44:	b8 00 00 00 00       	mov    $0x0,%eax
 8048f49:	8d 65 f4             	lea    -0xc(%ebp),%esp
 8048f4c:	5b                   	pop    %ebx
 8048f4d:	5e                   	pop    %esi
 8048f4e:	5f                   	pop    %edi
 8048f4f:	5d                   	pop    %ebp
 8048f50:	c3                   	ret    

08048f51 <_Z10show_cardsv>:
 8048f51:	55                   	push   %ebp
 8048f52:	89 e5                	mov    %esp,%ebp
 8048f54:	83 ec 18             	sub    $0x18,%esp
 8048f57:	8d 45 ec             	lea    -0x14(%ebp),%eax
 8048f5a:	83 ec 08             	sub    $0x8,%esp
 8048f5d:	68 64 ca 04 08       	push   $0x804ca64
 8048f62:	50                   	push   %eax
 8048f63:	e8 e0 05 00 00       	call   8049548 <_ZNSt6vectorIP4cardSaIS1_EE5beginEv>
 8048f68:	83 c4 0c             	add    $0xc,%esp
 8048f6b:	c7 45 f4 00 00 00 00 	movl   $0x0,-0xc(%ebp)
 8048f72:	eb 3d                	jmp    8048fb1 <_Z10show_cardsv+0x60>
 8048f74:	83 ec 0c             	sub    $0xc,%esp
 8048f77:	8d 45 ec             	lea    -0x14(%ebp),%eax
 8048f7a:	50                   	push   %eax
 8048f7b:	e8 52 06 00 00       	call   80495d2 <_ZNK9__gnu_cxx17__normal_iteratorIPP4cardSt6vectorIS2_SaIS2_EEEdeEv>
 8048f80:	83 c4 10             	add    $0x10,%esp
 8048f83:	8b 00                	mov    (%eax),%eax
 8048f85:	05 94 01 00 00       	add    $0x194,%eax
 8048f8a:	83 ec 04             	sub    $0x4,%esp
 8048f8d:	50                   	push   %eax
 8048f8e:	ff 75 f4             	pushl  -0xc(%ebp)
 8048f91:	68 b4 a8 04 08       	push   $0x804a8b4
 8048f96:	e8 c5 f8 ff ff       	call   8048860 <printf@plt>
 8048f9b:	83 c4 10             	add    $0x10,%esp
 8048f9e:	83 45 f4 01          	addl   $0x1,-0xc(%ebp)
 8048fa2:	83 ec 0c             	sub    $0xc,%esp
 8048fa5:	8d 45 ec             	lea    -0x14(%ebp),%eax
 8048fa8:	50                   	push   %eax
 8048fa9:	e8 0e 06 00 00       	call   80495bc <_ZN9__gnu_cxx17__normal_iteratorIPP4cardSt6vectorIS2_SaIS2_EEEppEv>
 8048fae:	83 c4 10             	add    $0x10,%esp
 8048fb1:	8d 45 f0             	lea    -0x10(%ebp),%eax
 8048fb4:	83 ec 08             	sub    $0x8,%esp
 8048fb7:	68 64 ca 04 08       	push   $0x804ca64
 8048fbc:	50                   	push   %eax
 8048fbd:	e8 a6 05 00 00       	call   8049568 <_ZNSt6vectorIP4cardSaIS1_EE3endEv>
 8048fc2:	83 c4 0c             	add    $0xc,%esp
 8048fc5:	83 ec 08             	sub    $0x8,%esp
 8048fc8:	8d 45 f0             	lea    -0x10(%ebp),%eax
 8048fcb:	50                   	push   %eax
 8048fcc:	8d 45 ec             	lea    -0x14(%ebp),%eax
 8048fcf:	50                   	push   %eax
 8048fd0:	e8 b5 05 00 00       	call   804958a <_ZN9__gnu_cxxneIPP4cardSt6vectorIS2_SaIS2_EEEEbRKNS_17__normal_iteratorIT_T0_EESC_>
 8048fd5:	83 c4 10             	add    $0x10,%esp
 8048fd8:	84 c0                	test   %al,%al
 8048fda:	75 98                	jne    8048f74 <_Z10show_cardsv+0x23>
 8048fdc:	c9                   	leave  
 8048fdd:	c3                   	ret    

08048fde <_Z11print_addrsv>:
 8048fde:	55                   	push   %ebp
 8048fdf:	89 e5                	mov    %esp,%ebp
 8048fe1:	83 ec 18             	sub    $0x18,%esp
 8048fe4:	8d 45 ec             	lea    -0x14(%ebp),%eax
 8048fe7:	83 ec 08             	sub    $0x8,%esp
 8048fea:	68 64 ca 04 08       	push   $0x804ca64
 8048fef:	50                   	push   %eax
 8048ff0:	e8 53 05 00 00       	call   8049548 <_ZNSt6vectorIP4cardSaIS1_EE5beginEv>
 8048ff5:	83 c4 0c             	add    $0xc,%esp
 8048ff8:	c7 45 f4 00 00 00 00 	movl   $0x0,-0xc(%ebp)
 8048fff:	e9 d0 00 00 00       	jmp    80490d4 <_Z11print_addrsv+0xf6>
 8049004:	83 ec 0c             	sub    $0xc,%esp
 8049007:	8d 45 ec             	lea    -0x14(%ebp),%eax
 804900a:	50                   	push   %eax
 804900b:	e8 c2 05 00 00       	call   80495d2 <_ZNK9__gnu_cxx17__normal_iteratorIPP4cardSt6vectorIS2_SaIS2_EEEdeEv>
 8049010:	83 c4 10             	add    $0x10,%esp
 8049013:	8b 00                	mov    (%eax),%eax
 8049015:	05 94 01 00 00       	add    $0x194,%eax
 804901a:	83 ec 04             	sub    $0x4,%esp
 804901d:	50                   	push   %eax
 804901e:	ff 75 f4             	pushl  -0xc(%ebp)
 8049021:	68 b4 a8 04 08       	push   $0x804a8b4
 8049026:	e8 35 f8 ff ff       	call   8048860 <printf@plt>
 804902b:	83 c4 10             	add    $0x10,%esp
 804902e:	83 ec 0c             	sub    $0xc,%esp
 8049031:	8d 45 ec             	lea    -0x14(%ebp),%eax
 8049034:	50                   	push   %eax
 8049035:	e8 98 05 00 00       	call   80495d2 <_ZNK9__gnu_cxx17__normal_iteratorIPP4cardSt6vectorIS2_SaIS2_EEEdeEv>
 804903a:	83 c4 10             	add    $0x10,%esp
 804903d:	8b 00                	mov    (%eax),%eax
 804903f:	83 ec 08             	sub    $0x8,%esp
 8049042:	50                   	push   %eax
 8049043:	68 c2 a8 04 08       	push   $0x804a8c2
 8049048:	e8 13 f8 ff ff       	call   8048860 <printf@plt>
 804904d:	83 c4 10             	add    $0x10,%esp
 8049050:	83 ec 0c             	sub    $0xc,%esp
 8049053:	8d 45 ec             	lea    -0x14(%ebp),%eax
 8049056:	50                   	push   %eax
 8049057:	e8 76 05 00 00       	call   80495d2 <_ZNK9__gnu_cxx17__normal_iteratorIPP4cardSt6vectorIS2_SaIS2_EEEdeEv>
 804905c:	83 c4 10             	add    $0x10,%esp
 804905f:	8b 00                	mov    (%eax),%eax
 8049061:	8b 00                	mov    (%eax),%eax
 8049063:	83 ec 08             	sub    $0x8,%esp
 8049066:	50                   	push   %eax
 8049067:	68 cd a8 04 08       	push   $0x804a8cd
 804906c:	e8 ef f7 ff ff       	call   8048860 <printf@plt>
 8049071:	83 c4 10             	add    $0x10,%esp
 8049074:	83 ec 0c             	sub    $0xc,%esp
 8049077:	8d 45 ec             	lea    -0x14(%ebp),%eax
 804907a:	50                   	push   %eax
 804907b:	e8 52 05 00 00       	call   80495d2 <_ZNK9__gnu_cxx17__normal_iteratorIPP4cardSt6vectorIS2_SaIS2_EEEdeEv>
 8049080:	83 c4 10             	add    $0x10,%esp
 8049083:	8b 00                	mov    (%eax),%eax
 8049085:	8b 00                	mov    (%eax),%eax
 8049087:	8b 00                	mov    (%eax),%eax
 8049089:	83 ec 08             	sub    $0x8,%esp
 804908c:	50                   	push   %eax
 804908d:	68 e3 a8 04 08       	push   $0x804a8e3
 8049092:	e8 c9 f7 ff ff       	call   8048860 <printf@plt>
 8049097:	83 c4 10             	add    $0x10,%esp
 804909a:	83 ec 0c             	sub    $0xc,%esp
 804909d:	8d 45 ec             	lea    -0x14(%ebp),%eax
 80490a0:	50                   	push   %eax
 80490a1:	e8 2c 05 00 00       	call   80495d2 <_ZNK9__gnu_cxx17__normal_iteratorIPP4cardSt6vectorIS2_SaIS2_EEEdeEv>
 80490a6:	83 c4 10             	add    $0x10,%esp
 80490a9:	8b 00                	mov    (%eax),%eax
 80490ab:	05 94 01 00 00       	add    $0x194,%eax
 80490b0:	83 ec 08             	sub    $0x8,%esp
 80490b3:	50                   	push   %eax
 80490b4:	68 f2 a8 04 08       	push   $0x804a8f2
 80490b9:	e8 a2 f7 ff ff       	call   8048860 <printf@plt>
 80490be:	83 c4 10             	add    $0x10,%esp
 80490c1:	83 45 f4 01          	addl   $0x1,-0xc(%ebp)
 80490c5:	83 ec 0c             	sub    $0xc,%esp
 80490c8:	8d 45 ec             	lea    -0x14(%ebp),%eax
 80490cb:	50                   	push   %eax
 80490cc:	e8 eb 04 00 00       	call   80495bc <_ZN9__gnu_cxx17__normal_iteratorIPP4cardSt6vectorIS2_SaIS2_EEEppEv>
 80490d1:	83 c4 10             	add    $0x10,%esp
 80490d4:	8d 45 f0             	lea    -0x10(%ebp),%eax
 80490d7:	83 ec 08             	sub    $0x8,%esp
 80490da:	68 64 ca 04 08       	push   $0x804ca64
 80490df:	50                   	push   %eax
 80490e0:	e8 83 04 00 00       	call   8049568 <_ZNSt6vectorIP4cardSaIS1_EE3endEv>
 80490e5:	83 c4 0c             	add    $0xc,%esp
 80490e8:	83 ec 08             	sub    $0x8,%esp
 80490eb:	8d 45 f0             	lea    -0x10(%ebp),%eax
 80490ee:	50                   	push   %eax
 80490ef:	8d 45 ec             	lea    -0x14(%ebp),%eax
 80490f2:	50                   	push   %eax
 80490f3:	e8 92 04 00 00       	call   804958a <_ZN9__gnu_cxxneIPP4cardSt6vectorIS2_SaIS2_EEEEbRKNS_17__normal_iteratorIT_T0_EESC_>
 80490f8:	83 c4 10             	add    $0x10,%esp
 80490fb:	84 c0                	test   %al,%al
 80490fd:	0f 85 01 ff ff ff    	jne    8049004 <_Z11print_addrsv+0x26>
 8049103:	c9                   	leave  
 8049104:	c3                   	ret    

08049105 <_Z6renamev>:
 8049105:	55                   	push   %ebp
 8049106:	89 e5                	mov    %esp,%ebp
 8049108:	83 ec 18             	sub    $0x18,%esp
 804910b:	83 ec 0c             	sub    $0xc,%esp
 804910e:	68 04 a9 04 08       	push   $0x804a904
 8049113:	e8 98 f7 ff ff       	call   80488b0 <puts@plt>
 8049118:	83 c4 10             	add    $0x10,%esp
 804911b:	a1 0c ca 04 08       	mov    0x804ca0c,%eax
 8049120:	ba 04 00 00 00       	mov    $0x4,%edx
 8049125:	83 ec 04             	sub    $0x4,%esp
 8049128:	50                   	push   %eax
 8049129:	52                   	push   %edx
 804912a:	8d 45 f4             	lea    -0xc(%ebp),%eax
 804912d:	50                   	push   %eax
 804912e:	e8 fd f6 ff ff       	call   8048830 <fgets@plt>
 8049133:	83 c4 10             	add    $0x10,%esp
 8049136:	89 45 ec             	mov    %eax,-0x14(%ebp)
 8049139:	83 7d ec 00          	cmpl   $0x0,-0x14(%ebp)
 804913d:	75 0a                	jne    8049149 <_Z6renamev+0x44>
 804913f:	83 ec 0c             	sub    $0xc,%esp
 8049142:	6a 01                	push   $0x1
 8049144:	e8 e7 f7 ff ff       	call   8048930 <exit@plt>
 8049149:	83 ec 04             	sub    $0x4,%esp
 804914c:	8d 45 e8             	lea    -0x18(%ebp),%eax
 804914f:	50                   	push   %eax
 8049150:	68 2f a9 04 08       	push   $0x804a92f
 8049155:	8d 45 f4             	lea    -0xc(%ebp),%eax
 8049158:	50                   	push   %eax
 8049159:	e8 92 f7 ff ff       	call   80488f0 <sscanf@plt>
 804915e:	83 c4 10             	add    $0x10,%esp
 8049161:	83 ec 0c             	sub    $0xc,%esp
 8049164:	68 64 ca 04 08       	push   $0x804ca64
 8049169:	e8 6e 04 00 00       	call   80495dc <_ZNKSt6vectorIP4cardSaIS1_EE4sizeEv>
 804916e:	83 c4 10             	add    $0x10,%esp
 8049171:	8d 50 ff             	lea    -0x1(%eax),%edx
 8049174:	8b 45 e8             	mov    -0x18(%ebp),%eax
 8049177:	39 c2                	cmp    %eax,%edx
 8049179:	0f 92 c0             	setb   %al
 804917c:	84 c0                	test   %al,%al
 804917e:	74 1a                	je     804919a <_Z6renamev+0x95>
 8049180:	83 ec 0c             	sub    $0xc,%esp
 8049183:	68 34 a9 04 08       	push   $0x804a934
 8049188:	e8 23 f7 ff ff       	call   80488b0 <puts@plt>
 804918d:	83 c4 10             	add    $0x10,%esp
 8049190:	83 ec 0c             	sub    $0xc,%esp
 8049193:	6a 00                	push   $0x0
 8049195:	e8 96 f7 ff ff       	call   8048930 <exit@plt>
 804919a:	83 ec 0c             	sub    $0xc,%esp
 804919d:	68 5c a9 04 08       	push   $0x804a95c
 80491a2:	e8 09 f7 ff ff       	call   80488b0 <puts@plt>
 80491a7:	83 c4 10             	add    $0x10,%esp
 80491aa:	8b 45 e8             	mov    -0x18(%ebp),%eax
 80491ad:	83 ec 08             	sub    $0x8,%esp
 80491b0:	50                   	push   %eax
 80491b1:	68 64 ca 04 08       	push   $0x804ca64
 80491b6:	e8 3b 04 00 00       	call   80495f6 <_ZNSt6vectorIP4cardSaIS1_EEixEj>
 80491bb:	83 c4 10             	add    $0x10,%esp
 80491be:	8b 00                	mov    (%eax),%eax
 80491c0:	05 94 01 00 00       	add    $0x194,%eax
 80491c5:	89 45 f0             	mov    %eax,-0x10(%ebp)
 80491c8:	a1 0c ca 04 08       	mov    0x804ca0c,%eax
 80491cd:	83 ec 04             	sub    $0x4,%esp
 80491d0:	50                   	push   %eax
 80491d1:	68 90 01 00 00       	push   $0x190
 80491d6:	ff 75 f0             	pushl  -0x10(%ebp)
 80491d9:	e8 52 f6 ff ff       	call   8048830 <fgets@plt>
 80491de:	83 c4 10             	add    $0x10,%esp
 80491e1:	89 45 ec             	mov    %eax,-0x14(%ebp)
 80491e4:	83 7d ec 00          	cmpl   $0x0,-0x14(%ebp)
 80491e8:	75 0a                	jne    80491f4 <_Z6renamev+0xef>
 80491ea:	83 ec 0c             	sub    $0xc,%esp
 80491ed:	6a 01                	push   $0x1
 80491ef:	e8 3c f7 ff ff       	call   8048930 <exit@plt>
 80491f4:	c9                   	leave  
 80491f5:	c3                   	ret    

080491f6 <_Z9read_cardv>:
 80491f6:	55                   	push   %ebp
 80491f7:	89 e5                	mov    %esp,%ebp
 80491f9:	83 ec 18             	sub    $0x18,%esp
 80491fc:	83 ec 0c             	sub    $0xc,%esp
 80491ff:	68 64 ca 04 08       	push   $0x804ca64
 8049204:	e8 d3 03 00 00       	call   80495dc <_ZNKSt6vectorIP4cardSaIS1_EE4sizeEv>
 8049209:	83 c4 10             	add    $0x10,%esp
 804920c:	85 c0                	test   %eax,%eax
 804920e:	0f 94 c0             	sete   %al
 8049211:	84 c0                	test   %al,%al
 8049213:	74 15                	je     804922a <_Z9read_cardv+0x34>
 8049215:	83 ec 0c             	sub    $0xc,%esp
 8049218:	68 88 a9 04 08       	push   $0x804a988
 804921d:	e8 3e f6 ff ff       	call   8048860 <printf@plt>
 8049222:	83 c4 10             	add    $0x10,%esp
 8049225:	e9 b2 00 00 00       	jmp    80492dc <_Z9read_cardv+0xe6>
 804922a:	83 ec 0c             	sub    $0xc,%esp
 804922d:	68 ac a9 04 08       	push   $0x804a9ac
 8049232:	e8 79 f6 ff ff       	call   80488b0 <puts@plt>
 8049237:	83 c4 10             	add    $0x10,%esp
 804923a:	a1 0c ca 04 08       	mov    0x804ca0c,%eax
 804923f:	ba 04 00 00 00       	mov    $0x4,%edx
 8049244:	83 ec 04             	sub    $0x4,%esp
 8049247:	50                   	push   %eax
 8049248:	52                   	push   %edx
 8049249:	8d 45 f4             	lea    -0xc(%ebp),%eax
 804924c:	50                   	push   %eax
 804924d:	e8 de f5 ff ff       	call   8048830 <fgets@plt>
 8049252:	83 c4 10             	add    $0x10,%esp
 8049255:	89 45 f0             	mov    %eax,-0x10(%ebp)
 8049258:	83 7d f0 00          	cmpl   $0x0,-0x10(%ebp)
 804925c:	75 0a                	jne    8049268 <_Z9read_cardv+0x72>
 804925e:	83 ec 0c             	sub    $0xc,%esp
 8049261:	6a 01                	push   $0x1
 8049263:	e8 c8 f6 ff ff       	call   8048930 <exit@plt>
 8049268:	83 ec 04             	sub    $0x4,%esp
 804926b:	8d 45 ec             	lea    -0x14(%ebp),%eax
 804926e:	50                   	push   %eax
 804926f:	68 2f a9 04 08       	push   $0x804a92f
 8049274:	8d 45 f4             	lea    -0xc(%ebp),%eax
 8049277:	50                   	push   %eax
 8049278:	e8 73 f6 ff ff       	call   80488f0 <sscanf@plt>
 804927d:	83 c4 10             	add    $0x10,%esp
 8049280:	83 ec 0c             	sub    $0xc,%esp
 8049283:	68 64 ca 04 08       	push   $0x804ca64
 8049288:	e8 4f 03 00 00       	call   80495dc <_ZNKSt6vectorIP4cardSaIS1_EE4sizeEv>
 804928d:	83 c4 10             	add    $0x10,%esp
 8049290:	8d 50 ff             	lea    -0x1(%eax),%edx
 8049293:	8b 45 ec             	mov    -0x14(%ebp),%eax
 8049296:	39 c2                	cmp    %eax,%edx
 8049298:	0f 92 c0             	setb   %al
 804929b:	84 c0                	test   %al,%al
 804929d:	74 1a                	je     80492b9 <_Z9read_cardv+0xc3>
 804929f:	83 ec 0c             	sub    $0xc,%esp
 80492a2:	68 d8 a9 04 08       	push   $0x804a9d8
 80492a7:	e8 04 f6 ff ff       	call   80488b0 <puts@plt>
 80492ac:	83 c4 10             	add    $0x10,%esp
 80492af:	83 ec 0c             	sub    $0xc,%esp
 80492b2:	6a 00                	push   $0x0
 80492b4:	e8 77 f6 ff ff       	call   8048930 <exit@plt>
 80492b9:	8b 45 ec             	mov    -0x14(%ebp),%eax
 80492bc:	83 ec 08             	sub    $0x8,%esp
 80492bf:	50                   	push   %eax
 80492c0:	68 64 ca 04 08       	push   $0x804ca64
 80492c5:	e8 2c 03 00 00       	call   80495f6 <_ZNSt6vectorIP4cardSaIS1_EEixEj>
 80492ca:	83 c4 10             	add    $0x10,%esp
 80492cd:	8b 00                	mov    (%eax),%eax
 80492cf:	8b 10                	mov    (%eax),%edx
 80492d1:	8b 12                	mov    (%edx),%edx
 80492d3:	83 ec 0c             	sub    $0xc,%esp
 80492d6:	50                   	push   %eax
 80492d7:	ff d2                	call   *%edx
 80492d9:	83 c4 10             	add    $0x10,%esp
 80492dc:	c9                   	leave  
 80492dd:	c3                   	ret    

080492de <main>:
 80492de:	8d 4c 24 04          	lea    0x4(%esp),%ecx
 80492e2:	83 e4 f0             	and    $0xfffffff0,%esp
 80492e5:	ff 71 fc             	pushl  -0x4(%ecx)
 80492e8:	55                   	push   %ebp
 80492e9:	89 e5                	mov    %esp,%ebp
 80492eb:	51                   	push   %ecx
 80492ec:	83 ec 34             	sub    $0x34,%esp
 80492ef:	65 a1 14 00 00 00    	mov    %gs:0x14,%eax
 80492f5:	89 45 f4             	mov    %eax,-0xc(%ebp)
 80492f8:	31 c0                	xor    %eax,%eax
 80492fa:	a1 0c ca 04 08       	mov    0x804ca0c,%eax
 80492ff:	83 ec 08             	sub    $0x8,%esp
 8049302:	6a 00                	push   $0x0
 8049304:	50                   	push   %eax
 8049305:	e8 d6 f4 ff ff       	call   80487e0 <setbuf@plt>
 804930a:	83 c4 10             	add    $0x10,%esp
 804930d:	a1 20 ca 04 08       	mov    0x804ca20,%eax
 8049312:	83 ec 08             	sub    $0x8,%esp
 8049315:	6a 00                	push   $0x0
 8049317:	50                   	push   %eax
 8049318:	e8 c3 f4 ff ff       	call   80487e0 <setbuf@plt>
 804931d:	83 c4 10             	add    $0x10,%esp
 8049320:	e8 ea f7 ff ff       	call   8048b0f <_Z7welcomev>
 8049325:	83 ec 08             	sub    $0x8,%esp
 8049328:	6a 64                	push   $0x64
 804932a:	68 64 ca 04 08       	push   $0x804ca64
 804932f:	e8 d4 02 00 00       	call   8049608 <_ZNSt6vectorIP4cardSaIS1_EE7reserveEj>
 8049334:	83 c4 10             	add    $0x10,%esp
 8049337:	a1 f8 aa 04 08       	mov    0x804aaf8,%eax
 804933c:	89 45 c8             	mov    %eax,-0x38(%ebp)
 804933f:	83 ec 0c             	sub    $0xc,%esp
 8049342:	68 00 aa 04 08       	push   $0x804aa00
 8049347:	e8 64 f5 ff ff       	call   80488b0 <puts@plt>
 804934c:	83 c4 10             	add    $0x10,%esp
 804934f:	a1 0c ca 04 08       	mov    0x804ca0c,%eax
 8049354:	ba 20 00 00 00       	mov    $0x20,%edx
 8049359:	83 ec 04             	sub    $0x4,%esp
 804935c:	50                   	push   %eax
 804935d:	52                   	push   %edx
 804935e:	8d 45 d4             	lea    -0x2c(%ebp),%eax
 8049361:	50                   	push   %eax
 8049362:	e8 c9 f4 ff ff       	call   8048830 <fgets@plt>
 8049367:	83 c4 10             	add    $0x10,%esp
 804936a:	89 45 d0             	mov    %eax,-0x30(%ebp)
 804936d:	83 7d d0 00          	cmpl   $0x0,-0x30(%ebp)
 8049371:	75 0a                	jne    804937d <main+0x9f>
 8049373:	83 ec 0c             	sub    $0xc,%esp
 8049376:	6a 00                	push   $0x0
 8049378:	e8 b3 f5 ff ff       	call   8048930 <exit@plt>
 804937d:	83 ec 04             	sub    $0x4,%esp
 8049380:	8d 45 c8             	lea    -0x38(%ebp),%eax
 8049383:	50                   	push   %eax
 8049384:	68 4a aa 04 08       	push   $0x804aa4a
 8049389:	8d 45 d4             	lea    -0x2c(%ebp),%eax
 804938c:	50                   	push   %eax
 804938d:	e8 5e f5 ff ff       	call   80488f0 <sscanf@plt>
 8049392:	83 c4 10             	add    $0x10,%esp
 8049395:	d9 45 c8             	flds   -0x38(%ebp)
 8049398:	d9 e8                	fld1   
 804939a:	dd e9                	fucomp %st(1)
 804939c:	df e0                	fnstsw %ax
 804939e:	9e                   	sahf   
 804939f:	7a 31                	jp     80493d2 <main+0xf4>
 80493a1:	d9 e8                	fld1   
 80493a3:	da e9                	fucompp 
 80493a5:	df e0                	fnstsw %ax
 80493a7:	9e                   	sahf   
 80493a8:	75 2a                	jne    80493d4 <main+0xf6>
 80493aa:	e8 98 f7 ff ff       	call   8048b47 <_Z12collect_cardv>
 80493af:	89 45 cc             	mov    %eax,-0x34(%ebp)
 80493b2:	8b 45 cc             	mov    -0x34(%ebp),%eax
 80493b5:	85 c0                	test   %eax,%eax
 80493b7:	74 14                	je     80493cd <main+0xef>
 80493b9:	83 ec 08             	sub    $0x8,%esp
 80493bc:	8d 45 cc             	lea    -0x34(%ebp),%eax
 80493bf:	50                   	push   %eax
 80493c0:	68 64 ca 04 08       	push   $0x804ca64
 80493c5:	e8 3c 03 00 00       	call   8049706 <_ZNSt6vectorIP4cardSaIS1_EE9push_backERKS1_>
 80493ca:	83 c4 10             	add    $0x10,%esp
 80493cd:	e9 c7 00 00 00       	jmp    8049499 <main+0x1bb>
 80493d2:	dd d8                	fstp   %st(0)
 80493d4:	d9 45 c8             	flds   -0x38(%ebp)
 80493d7:	d9 05 fc aa 04 08    	flds   0x804aafc
 80493dd:	dd e9                	fucomp %st(1)
 80493df:	df e0                	fnstsw %ax
 80493e1:	9e                   	sahf   
 80493e2:	7a 17                	jp     80493fb <main+0x11d>
 80493e4:	d9 05 fc aa 04 08    	flds   0x804aafc
 80493ea:	da e9                	fucompp 
 80493ec:	df e0                	fnstsw %ax
 80493ee:	9e                   	sahf   
 80493ef:	75 0c                	jne    80493fd <main+0x11f>
 80493f1:	e8 5b fb ff ff       	call   8048f51 <_Z10show_cardsv>
 80493f6:	e9 9e 00 00 00       	jmp    8049499 <main+0x1bb>
 80493fb:	dd d8                	fstp   %st(0)
 80493fd:	d9 45 c8             	flds   -0x38(%ebp)
 8049400:	d9 05 00 ab 04 08    	flds   0x804ab00
 8049406:	dd e9                	fucomp %st(1)
 8049408:	df e0                	fnstsw %ax
 804940a:	9e                   	sahf   
 804940b:	7a 14                	jp     8049421 <main+0x143>
 804940d:	d9 05 00 ab 04 08    	flds   0x804ab00
 8049413:	da e9                	fucompp 
 8049415:	df e0                	fnstsw %ax
 8049417:	9e                   	sahf   
 8049418:	75 09                	jne    8049423 <main+0x145>
 804941a:	e8 e6 fc ff ff       	call   8049105 <_Z6renamev>
 804941f:	eb 78                	jmp    8049499 <main+0x1bb>
 8049421:	dd d8                	fstp   %st(0)
 8049423:	d9 45 c8             	flds   -0x38(%ebp)
 8049426:	d9 05 04 ab 04 08    	flds   0x804ab04
 804942c:	dd e9                	fucomp %st(1)
 804942e:	df e0                	fnstsw %ax
 8049430:	9e                   	sahf   
 8049431:	7a 14                	jp     8049447 <main+0x169>
 8049433:	d9 05 04 ab 04 08    	flds   0x804ab04
 8049439:	da e9                	fucompp 
 804943b:	df e0                	fnstsw %ax
 804943d:	9e                   	sahf   
 804943e:	75 09                	jne    8049449 <main+0x16b>
 8049440:	e8 b1 fd ff ff       	call   80491f6 <_Z9read_cardv>
 8049445:	eb 52                	jmp    8049499 <main+0x1bb>
 8049447:	dd d8                	fstp   %st(0)
 8049449:	d9 45 c8             	flds   -0x38(%ebp)
 804944c:	d9 05 08 ab 04 08    	flds   0x804ab08
 8049452:	dd e9                	fucomp %st(1)
 8049454:	df e0                	fnstsw %ax
 8049456:	9e                   	sahf   
 8049457:	7a 24                	jp     804947d <main+0x19f>
 8049459:	d9 05 08 ab 04 08    	flds   0x804ab08
 804945f:	da e9                	fucompp 
 8049461:	df e0                	fnstsw %ax
 8049463:	9e                   	sahf   
 8049464:	75 19                	jne    804947f <main+0x1a1>
 8049466:	83 ec 0c             	sub    $0xc,%esp
 8049469:	68 50 aa 04 08       	push   $0x804aa50
 804946e:	e8 3d f4 ff ff       	call   80488b0 <puts@plt>
 8049473:	83 c4 10             	add    $0x10,%esp
 8049476:	e8 63 fb ff ff       	call   8048fde <_Z11print_addrsv>
 804947b:	eb 1c                	jmp    8049499 <main+0x1bb>
 804947d:	dd d8                	fstp   %st(0)
 804947f:	83 ec 0c             	sub    $0xc,%esp
 8049482:	68 a4 aa 04 08       	push   $0x804aaa4
 8049487:	e8 24 f4 ff ff       	call   80488b0 <puts@plt>
 804948c:	83 c4 10             	add    $0x10,%esp
 804948f:	83 ec 0c             	sub    $0xc,%esp
 8049492:	6a 01                	push   $0x1
 8049494:	e8 97 f4 ff ff       	call   8048930 <exit@plt>
 8049499:	e9 a1 fe ff ff       	jmp    804933f <main+0x61>

0804949e <_Z41__static_initialization_and_destruction_0ii>:
 804949e:	55                   	push   %ebp
 804949f:	89 e5                	mov    %esp,%ebp
 80494a1:	83 ec 08             	sub    $0x8,%esp
 80494a4:	83 7d 08 01          	cmpl   $0x1,0x8(%ebp)
 80494a8:	75 33                	jne    80494dd <_Z41__static_initialization_and_destruction_0ii+0x3f>
 80494aa:	81 7d 0c ff ff 00 00 	cmpl   $0xffff,0xc(%ebp)
 80494b1:	75 2a                	jne    80494dd <_Z41__static_initialization_and_destruction_0ii+0x3f>
 80494b3:	83 ec 0c             	sub    $0xc,%esp
 80494b6:	68 64 ca 04 08       	push   $0x804ca64
 80494bb:	e8 70 00 00 00       	call   8049530 <_ZNSt6vectorIP4cardSaIS1_EEC1Ev>
 80494c0:	83 c4 10             	add    $0x10,%esp
 80494c3:	83 ec 04             	sub    $0x4,%esp
 80494c6:	68 c8 c9 04 08       	push   $0x804c9c8
 80494cb:	68 64 ca 04 08       	push   $0x804ca64
 80494d0:	68 0a a1 04 08       	push   $0x804a10a
 80494d5:	e8 16 f3 ff ff       	call   80487f0 <__cxa_atexit@plt>
 80494da:	83 c4 10             	add    $0x10,%esp
 80494dd:	c9                   	leave  
 80494de:	c3                   	ret    

080494df <_GLOBAL__sub_I_key>:
 80494df:	55                   	push   %ebp
 80494e0:	89 e5                	mov    %esp,%ebp
 80494e2:	83 ec 08             	sub    $0x8,%esp
 80494e5:	83 ec 08             	sub    $0x8,%esp
 80494e8:	68 ff ff 00 00       	push   $0xffff
 80494ed:	6a 01                	push   $0x1
 80494ef:	e8 aa ff ff ff       	call   804949e <_Z41__static_initialization_and_destruction_0ii>
 80494f4:	83 c4 10             	add    $0x10,%esp
 80494f7:	c9                   	leave  
 80494f8:	c3                   	ret    

080494f9 <_ZnwjPv>:
 80494f9:	55                   	push   %ebp
 80494fa:	89 e5                	mov    %esp,%ebp
 80494fc:	8b 45 0c             	mov    0xc(%ebp),%eax
 80494ff:	5d                   	pop    %ebp
 8049500:	c3                   	ret    
 8049501:	90                   	nop

08049502 <_ZN4card9read_factEv>:
 8049502:	55                   	push   %ebp
 8049503:	89 e5                	mov    %esp,%ebp
 8049505:	83 ec 08             	sub    $0x8,%esp
 8049508:	8b 45 08             	mov    0x8(%ebp),%eax
 804950b:	83 c0 04             	add    $0x4,%eax
 804950e:	83 ec 08             	sub    $0x8,%esp
 8049511:	50                   	push   %eax
 8049512:	68 00 a2 04 08       	push   $0x804a200
 8049517:	e8 44 f3 ff ff       	call   8048860 <printf@plt>
 804951c:	83 c4 10             	add    $0x10,%esp
 804951f:	c9                   	leave  
 8049520:	c3                   	ret    
 8049521:	90                   	nop

08049522 <_ZN4cardC1Ev>:
 8049522:	55                   	push   %ebp
 8049523:	89 e5                	mov    %esp,%ebp
 8049525:	8b 45 08             	mov    0x8(%ebp),%eax
 8049528:	c7 00 18 ab 04 08    	movl   $0x804ab18,(%eax)
 804952e:	5d                   	pop    %ebp
 804952f:	c3                   	ret    

08049530 <_ZNSt6vectorIP4cardSaIS1_EEC1Ev>:
 8049530:	55                   	push   %ebp
 8049531:	89 e5                	mov    %esp,%ebp
 8049533:	83 ec 08             	sub    $0x8,%esp
 8049536:	8b 45 08             	mov    0x8(%ebp),%eax
 8049539:	83 ec 0c             	sub    $0xc,%esp
 804953c:	50                   	push   %eax
 804953d:	e8 42 02 00 00       	call   8049784 <_ZNSt12_Vector_baseIP4cardSaIS1_EEC1Ev>
 8049542:	83 c4 10             	add    $0x10,%esp
 8049545:	c9                   	leave  
 8049546:	c3                   	ret    
 8049547:	90                   	nop

08049548 <_ZNSt6vectorIP4cardSaIS1_EE5beginEv>:
 8049548:	55                   	push   %ebp
 8049549:	89 e5                	mov    %esp,%ebp
 804954b:	83 ec 08             	sub    $0x8,%esp
 804954e:	8b 45 0c             	mov    0xc(%ebp),%eax
 8049551:	83 ec 08             	sub    $0x8,%esp
 8049554:	50                   	push   %eax
 8049555:	ff 75 08             	pushl  0x8(%ebp)
 8049558:	e8 a3 02 00 00       	call   8049800 <_ZN9__gnu_cxx17__normal_iteratorIPP4cardSt6vectorIS2_SaIS2_EEEC1ERKS3_>
 804955d:	83 c4 10             	add    $0x10,%esp
 8049560:	8b 45 08             	mov    0x8(%ebp),%eax
 8049563:	c9                   	leave  
 8049564:	c2 04 00             	ret    $0x4
 8049567:	90                   	nop

08049568 <_ZNSt6vectorIP4cardSaIS1_EE3endEv>:
 8049568:	55                   	push   %ebp
 8049569:	89 e5                	mov    %esp,%ebp
 804956b:	83 ec 08             	sub    $0x8,%esp
 804956e:	8b 45 0c             	mov    0xc(%ebp),%eax
 8049571:	83 c0 04             	add    $0x4,%eax
 8049574:	83 ec 08             	sub    $0x8,%esp
 8049577:	50                   	push   %eax
 8049578:	ff 75 08             	pushl  0x8(%ebp)
 804957b:	e8 80 02 00 00       	call   8049800 <_ZN9__gnu_cxx17__normal_iteratorIPP4cardSt6vectorIS2_SaIS2_EEEC1ERKS3_>
 8049580:	83 c4 10             	add    $0x10,%esp
 8049583:	8b 45 08             	mov    0x8(%ebp),%eax
 8049586:	c9                   	leave  
 8049587:	c2 04 00             	ret    $0x4

0804958a <_ZN9__gnu_cxxneIPP4cardSt6vectorIS2_SaIS2_EEEEbRKNS_17__normal_iteratorIT_T0_EESC_>:
 804958a:	55                   	push   %ebp
 804958b:	89 e5                	mov    %esp,%ebp
 804958d:	53                   	push   %ebx
 804958e:	83 ec 04             	sub    $0x4,%esp
 8049591:	83 ec 0c             	sub    $0xc,%esp
 8049594:	ff 75 08             	pushl  0x8(%ebp)
 8049597:	e8 74 02 00 00       	call   8049810 <_ZNK9__gnu_cxx17__normal_iteratorIPP4cardSt6vectorIS2_SaIS2_EEE4baseEv>
 804959c:	83 c4 10             	add    $0x10,%esp
 804959f:	8b 18                	mov    (%eax),%ebx
 80495a1:	83 ec 0c             	sub    $0xc,%esp
 80495a4:	ff 75 0c             	pushl  0xc(%ebp)
 80495a7:	e8 64 02 00 00       	call   8049810 <_ZNK9__gnu_cxx17__normal_iteratorIPP4cardSt6vectorIS2_SaIS2_EEE4baseEv>
 80495ac:	83 c4 10             	add    $0x10,%esp
 80495af:	8b 00                	mov    (%eax),%eax
 80495b1:	39 c3                	cmp    %eax,%ebx
 80495b3:	0f 95 c0             	setne  %al
 80495b6:	8b 5d fc             	mov    -0x4(%ebp),%ebx
 80495b9:	c9                   	leave  
 80495ba:	c3                   	ret    
 80495bb:	90                   	nop

080495bc <_ZN9__gnu_cxx17__normal_iteratorIPP4cardSt6vectorIS2_SaIS2_EEEppEv>:
 80495bc:	55                   	push   %ebp
 80495bd:	89 e5                	mov    %esp,%ebp
 80495bf:	8b 45 08             	mov    0x8(%ebp),%eax
 80495c2:	8b 00                	mov    (%eax),%eax
 80495c4:	8d 50 04             	lea    0x4(%eax),%edx
 80495c7:	8b 45 08             	mov    0x8(%ebp),%eax
 80495ca:	89 10                	mov    %edx,(%eax)
 80495cc:	8b 45 08             	mov    0x8(%ebp),%eax
 80495cf:	5d                   	pop    %ebp
 80495d0:	c3                   	ret    
 80495d1:	90                   	nop

080495d2 <_ZNK9__gnu_cxx17__normal_iteratorIPP4cardSt6vectorIS2_SaIS2_EEEdeEv>:
 80495d2:	55                   	push   %ebp
 80495d3:	89 e5                	mov    %esp,%ebp
 80495d5:	8b 45 08             	mov    0x8(%ebp),%eax
 80495d8:	8b 00                	mov    (%eax),%eax
 80495da:	5d                   	pop    %ebp
 80495db:	c3                   	ret    

080495dc <_ZNKSt6vectorIP4cardSaIS1_EE4sizeEv>:
 80495dc:	55                   	push   %ebp
 80495dd:	89 e5                	mov    %esp,%ebp
 80495df:	8b 45 08             	mov    0x8(%ebp),%eax
 80495e2:	8b 40 04             	mov    0x4(%eax),%eax
 80495e5:	89 c2                	mov    %eax,%edx
 80495e7:	8b 45 08             	mov    0x8(%ebp),%eax
 80495ea:	8b 00                	mov    (%eax),%eax
 80495ec:	29 c2                	sub    %eax,%edx
 80495ee:	89 d0                	mov    %edx,%eax
 80495f0:	c1 f8 02             	sar    $0x2,%eax
 80495f3:	5d                   	pop    %ebp
 80495f4:	c3                   	ret    
 80495f5:	90                   	nop

080495f6 <_ZNSt6vectorIP4cardSaIS1_EEixEj>:
 80495f6:	55                   	push   %ebp
 80495f7:	89 e5                	mov    %esp,%ebp
 80495f9:	8b 45 08             	mov    0x8(%ebp),%eax
 80495fc:	8b 00                	mov    (%eax),%eax
 80495fe:	8b 55 0c             	mov    0xc(%ebp),%edx
 8049601:	c1 e2 02             	shl    $0x2,%edx
 8049604:	01 d0                	add    %edx,%eax
 8049606:	5d                   	pop    %ebp
 8049607:	c3                   	ret    

08049608 <_ZNSt6vectorIP4cardSaIS1_EE7reserveEj>:
 8049608:	55                   	push   %ebp
 8049609:	89 e5                	mov    %esp,%ebp
 804960b:	83 ec 18             	sub    $0x18,%esp
 804960e:	83 ec 0c             	sub    $0xc,%esp
 8049611:	ff 75 08             	pushl  0x8(%ebp)
 8049614:	e8 ff 01 00 00       	call   8049818 <_ZNKSt6vectorIP4cardSaIS1_EE8max_sizeEv>
 8049619:	83 c4 10             	add    $0x10,%esp
 804961c:	3b 45 0c             	cmp    0xc(%ebp),%eax
 804961f:	0f 92 c0             	setb   %al
 8049622:	84 c0                	test   %al,%al
 8049624:	74 0d                	je     8049633 <_ZNSt6vectorIP4cardSaIS1_EE7reserveEj+0x2b>
 8049626:	83 ec 0c             	sub    $0xc,%esp
 8049629:	68 d2 aa 04 08       	push   $0x804aad2
 804962e:	e8 7d f1 ff ff       	call   80487b0 <_ZSt20__throw_length_errorPKc@plt>
 8049633:	83 ec 0c             	sub    $0xc,%esp
 8049636:	ff 75 08             	pushl  0x8(%ebp)
 8049639:	e8 fe 01 00 00       	call   804983c <_ZNKSt6vectorIP4cardSaIS1_EE8capacityEv>
 804963e:	83 c4 10             	add    $0x10,%esp
 8049641:	3b 45 0c             	cmp    0xc(%ebp),%eax
 8049644:	0f 92 c0             	setb   %al
 8049647:	84 c0                	test   %al,%al
 8049649:	0f 84 b5 00 00 00    	je     8049704 <_ZNSt6vectorIP4cardSaIS1_EE7reserveEj+0xfc>
 804964f:	83 ec 0c             	sub    $0xc,%esp
 8049652:	ff 75 08             	pushl  0x8(%ebp)
 8049655:	e8 82 ff ff ff       	call   80495dc <_ZNKSt6vectorIP4cardSaIS1_EE4sizeEv>
 804965a:	83 c4 10             	add    $0x10,%esp
 804965d:	89 45 f0             	mov    %eax,-0x10(%ebp)
 8049660:	8b 45 08             	mov    0x8(%ebp),%eax
 8049663:	8b 50 04             	mov    0x4(%eax),%edx
 8049666:	8b 45 08             	mov    0x8(%ebp),%eax
 8049669:	8b 00                	mov    (%eax),%eax
 804966b:	52                   	push   %edx
 804966c:	50                   	push   %eax
 804966d:	ff 75 0c             	pushl  0xc(%ebp)
 8049670:	ff 75 08             	pushl  0x8(%ebp)
 8049673:	e8 de 01 00 00       	call   8049856 <_ZNSt6vectorIP4cardSaIS1_EE20_M_allocate_and_copyIPS1_EES5_jT_S6_>
 8049678:	83 c4 10             	add    $0x10,%esp
 804967b:	89 45 f4             	mov    %eax,-0xc(%ebp)
 804967e:	8b 45 08             	mov    0x8(%ebp),%eax
 8049681:	83 ec 0c             	sub    $0xc,%esp
 8049684:	50                   	push   %eax
 8049685:	e8 4c 02 00 00       	call   80498d6 <_ZNSt12_Vector_baseIP4cardSaIS1_EE19_M_get_Tp_allocatorEv>
 804968a:	83 c4 10             	add    $0x10,%esp
 804968d:	89 c1                	mov    %eax,%ecx
 804968f:	8b 45 08             	mov    0x8(%ebp),%eax
 8049692:	8b 50 04             	mov    0x4(%eax),%edx
 8049695:	8b 45 08             	mov    0x8(%ebp),%eax
 8049698:	8b 00                	mov    (%eax),%eax
 804969a:	83 ec 04             	sub    $0x4,%esp
 804969d:	51                   	push   %ecx
 804969e:	52                   	push   %edx
 804969f:	50                   	push   %eax
 80496a0:	e8 39 02 00 00       	call   80498de <_ZSt8_DestroyIPP4cardS1_EvT_S3_RSaIT0_E>
 80496a5:	83 c4 10             	add    $0x10,%esp
 80496a8:	8b 45 08             	mov    0x8(%ebp),%eax
 80496ab:	8b 40 08             	mov    0x8(%eax),%eax
 80496ae:	89 c2                	mov    %eax,%edx
 80496b0:	8b 45 08             	mov    0x8(%ebp),%eax
 80496b3:	8b 00                	mov    (%eax),%eax
 80496b5:	29 c2                	sub    %eax,%edx
 80496b7:	89 d0                	mov    %edx,%eax
 80496b9:	c1 f8 02             	sar    $0x2,%eax
 80496bc:	89 c1                	mov    %eax,%ecx
 80496be:	8b 45 08             	mov    0x8(%ebp),%eax
 80496c1:	8b 10                	mov    (%eax),%edx
 80496c3:	8b 45 08             	mov    0x8(%ebp),%eax
 80496c6:	83 ec 04             	sub    $0x4,%esp
 80496c9:	51                   	push   %ecx
 80496ca:	52                   	push   %edx
 80496cb:	50                   	push   %eax
 80496cc:	e8 27 02 00 00       	call   80498f8 <_ZNSt12_Vector_baseIP4cardSaIS1_EE13_M_deallocateEPS1_j>
 80496d1:	83 c4 10             	add    $0x10,%esp
 80496d4:	8b 45 08             	mov    0x8(%ebp),%eax
 80496d7:	8b 55 f4             	mov    -0xc(%ebp),%edx
 80496da:	89 10                	mov    %edx,(%eax)
 80496dc:	8b 45 f0             	mov    -0x10(%ebp),%eax
 80496df:	8d 14 85 00 00 00 00 	lea    0x0(,%eax,4),%edx
 80496e6:	8b 45 f4             	mov    -0xc(%ebp),%eax
 80496e9:	01 c2                	add    %eax,%edx
 80496eb:	8b 45 08             	mov    0x8(%ebp),%eax
 80496ee:	89 50 04             	mov    %edx,0x4(%eax)
 80496f1:	8b 45 08             	mov    0x8(%ebp),%eax
 80496f4:	8b 00                	mov    (%eax),%eax
 80496f6:	8b 55 0c             	mov    0xc(%ebp),%edx
 80496f9:	c1 e2 02             	shl    $0x2,%edx
 80496fc:	01 c2                	add    %eax,%edx
 80496fe:	8b 45 08             	mov    0x8(%ebp),%eax
 8049701:	89 50 08             	mov    %edx,0x8(%eax)
 8049704:	c9                   	leave  
 8049705:	c3                   	ret    

08049706 <_ZNSt6vectorIP4cardSaIS1_EE9push_backERKS1_>:
 8049706:	55                   	push   %ebp
 8049707:	89 e5                	mov    %esp,%ebp
 8049709:	83 ec 18             	sub    $0x18,%esp
 804970c:	8b 45 08             	mov    0x8(%ebp),%eax
 804970f:	8b 50 04             	mov    0x4(%eax),%edx
 8049712:	8b 45 08             	mov    0x8(%ebp),%eax
 8049715:	8b 40 08             	mov    0x8(%eax),%eax
 8049718:	39 c2                	cmp    %eax,%edx
 804971a:	74 2a                	je     8049746 <_ZNSt6vectorIP4cardSaIS1_EE9push_backERKS1_+0x40>
 804971c:	8b 45 08             	mov    0x8(%ebp),%eax
 804971f:	8b 50 04             	mov    0x4(%eax),%edx
 8049722:	8b 45 08             	mov    0x8(%ebp),%eax
 8049725:	83 ec 04             	sub    $0x4,%esp
 8049728:	ff 75 0c             	pushl  0xc(%ebp)
 804972b:	52                   	push   %edx
 804972c:	50                   	push   %eax
 804972d:	e8 e9 01 00 00       	call   804991b <_ZN9__gnu_cxx14__alloc_traitsISaIP4cardEE9constructIS2_EEvRS3_PS2_RKT_>
 8049732:	83 c4 10             	add    $0x10,%esp
 8049735:	8b 45 08             	mov    0x8(%ebp),%eax
 8049738:	8b 40 04             	mov    0x4(%eax),%eax
 804973b:	8d 50 04             	lea    0x4(%eax),%edx
 804973e:	8b 45 08             	mov    0x8(%ebp),%eax
 8049741:	89 50 04             	mov    %edx,0x4(%eax)
 8049744:	eb 26                	jmp    804976c <_ZNSt6vectorIP4cardSaIS1_EE9push_backERKS1_+0x66>
 8049746:	8d 45 f4             	lea    -0xc(%ebp),%eax
 8049749:	83 ec 08             	sub    $0x8,%esp
 804974c:	ff 75 08             	pushl  0x8(%ebp)
 804974f:	50                   	push   %eax
 8049750:	e8 13 fe ff ff       	call   8049568 <_ZNSt6vectorIP4cardSaIS1_EE3endEv>
 8049755:	83 c4 0c             	add    $0xc,%esp
 8049758:	83 ec 04             	sub    $0x4,%esp
 804975b:	ff 75 0c             	pushl  0xc(%ebp)
 804975e:	ff 75 f4             	pushl  -0xc(%ebp)
 8049761:	ff 75 08             	pushl  0x8(%ebp)
 8049764:	e8 cf 01 00 00       	call   8049938 <_ZNSt6vectorIP4cardSaIS1_EE13_M_insert_auxEN9__gnu_cxx17__normal_iteratorIPS1_S3_EERKS1_>
 8049769:	83 c4 10             	add    $0x10,%esp
 804976c:	c9                   	leave  
 804976d:	c3                   	ret    

0804976e <_ZNSt12_Vector_baseIP4cardSaIS1_EE12_Vector_implD1Ev>:
 804976e:	55                   	push   %ebp
 804976f:	89 e5                	mov    %esp,%ebp
 8049771:	83 ec 08             	sub    $0x8,%esp
 8049774:	83 ec 0c             	sub    $0xc,%esp
 8049777:	ff 75 08             	pushl  0x8(%ebp)
 804977a:	e8 8d 04 00 00       	call   8049c0c <_ZNSaIP4cardED1Ev>
 804977f:	83 c4 10             	add    $0x10,%esp
 8049782:	c9                   	leave  
 8049783:	c3                   	ret    

08049784 <_ZNSt12_Vector_baseIP4cardSaIS1_EEC1Ev>:
 8049784:	55                   	push   %ebp
 8049785:	89 e5                	mov    %esp,%ebp
 8049787:	83 ec 08             	sub    $0x8,%esp
 804978a:	8b 45 08             	mov    0x8(%ebp),%eax
 804978d:	83 ec 0c             	sub    $0xc,%esp
 8049790:	50                   	push   %eax
 8049791:	e8 42 04 00 00       	call   8049bd8 <_ZNSt12_Vector_baseIP4cardSaIS1_EE12_Vector_implC1Ev>
 8049796:	83 c4 10             	add    $0x10,%esp
 8049799:	c9                   	leave  
 804979a:	c3                   	ret    
 804979b:	90                   	nop

0804979c <_ZNSt12_Vector_baseIP4cardSaIS1_EED1Ev>:
 804979c:	55                   	push   %ebp
 804979d:	89 e5                	mov    %esp,%ebp
 804979f:	53                   	push   %ebx
 80497a0:	83 ec 04             	sub    $0x4,%esp
 80497a3:	8b 45 08             	mov    0x8(%ebp),%eax
 80497a6:	8b 40 08             	mov    0x8(%eax),%eax
 80497a9:	89 c2                	mov    %eax,%edx
 80497ab:	8b 45 08             	mov    0x8(%ebp),%eax
 80497ae:	8b 00                	mov    (%eax),%eax
 80497b0:	29 c2                	sub    %eax,%edx
 80497b2:	89 d0                	mov    %edx,%eax
 80497b4:	c1 f8 02             	sar    $0x2,%eax
 80497b7:	89 c2                	mov    %eax,%edx
 80497b9:	8b 45 08             	mov    0x8(%ebp),%eax
 80497bc:	8b 00                	mov    (%eax),%eax
 80497be:	83 ec 04             	sub    $0x4,%esp
 80497c1:	52                   	push   %edx
 80497c2:	50                   	push   %eax
 80497c3:	ff 75 08             	pushl  0x8(%ebp)
 80497c6:	e8 2d 01 00 00       	call   80498f8 <_ZNSt12_Vector_baseIP4cardSaIS1_EE13_M_deallocateEPS1_j>
 80497cb:	83 c4 10             	add    $0x10,%esp
 80497ce:	8b 45 08             	mov    0x8(%ebp),%eax
 80497d1:	83 ec 0c             	sub    $0xc,%esp
 80497d4:	50                   	push   %eax
 80497d5:	e8 94 ff ff ff       	call   804976e <_ZNSt12_Vector_baseIP4cardSaIS1_EE12_Vector_implD1Ev>
 80497da:	83 c4 10             	add    $0x10,%esp
 80497dd:	eb 1c                	jmp    80497fb <_ZNSt12_Vector_baseIP4cardSaIS1_EED1Ev+0x5f>
 80497df:	89 c3                	mov    %eax,%ebx
 80497e1:	8b 45 08             	mov    0x8(%ebp),%eax
 80497e4:	83 ec 0c             	sub    $0xc,%esp
 80497e7:	50                   	push   %eax
 80497e8:	e8 81 ff ff ff       	call   804976e <_ZNSt12_Vector_baseIP4cardSaIS1_EE12_Vector_implD1Ev>
 80497ed:	83 c4 10             	add    $0x10,%esp
 80497f0:	89 d8                	mov    %ebx,%eax
 80497f2:	83 ec 0c             	sub    $0xc,%esp
 80497f5:	50                   	push   %eax
 80497f6:	e8 25 f1 ff ff       	call   8048920 <_Unwind_Resume@plt>
 80497fb:	8b 5d fc             	mov    -0x4(%ebp),%ebx
 80497fe:	c9                   	leave  
 80497ff:	c3                   	ret    

08049800 <_ZN9__gnu_cxx17__normal_iteratorIPP4cardSt6vectorIS2_SaIS2_EEEC1ERKS3_>:
 8049800:	55                   	push   %ebp
 8049801:	89 e5                	mov    %esp,%ebp
 8049803:	8b 45 0c             	mov    0xc(%ebp),%eax
 8049806:	8b 10                	mov    (%eax),%edx
 8049808:	8b 45 08             	mov    0x8(%ebp),%eax
 804980b:	89 10                	mov    %edx,(%eax)
 804980d:	5d                   	pop    %ebp
 804980e:	c3                   	ret    
 804980f:	90                   	nop

08049810 <_ZNK9__gnu_cxx17__normal_iteratorIPP4cardSt6vectorIS2_SaIS2_EEE4baseEv>:
 8049810:	55                   	push   %ebp
 8049811:	89 e5                	mov    %esp,%ebp
 8049813:	8b 45 08             	mov    0x8(%ebp),%eax
 8049816:	5d                   	pop    %ebp
 8049817:	c3                   	ret    

08049818 <_ZNKSt6vectorIP4cardSaIS1_EE8max_sizeEv>:
 8049818:	55                   	push   %ebp
 8049819:	89 e5                	mov    %esp,%ebp
 804981b:	83 ec 08             	sub    $0x8,%esp
 804981e:	8b 45 08             	mov    0x8(%ebp),%eax
 8049821:	83 ec 0c             	sub    $0xc,%esp
 8049824:	50                   	push   %eax
 8049825:	e8 0e 04 00 00       	call   8049c38 <_ZNKSt12_Vector_baseIP4cardSaIS1_EE19_M_get_Tp_allocatorEv>
 804982a:	83 c4 10             	add    $0x10,%esp
 804982d:	83 ec 0c             	sub    $0xc,%esp
 8049830:	50                   	push   %eax
 8049831:	e8 ec 03 00 00       	call   8049c22 <_ZN9__gnu_cxx14__alloc_traitsISaIP4cardEE8max_sizeERKS3_>
 8049836:	83 c4 10             	add    $0x10,%esp
 8049839:	c9                   	leave  
 804983a:	c3                   	ret    
 804983b:	90                   	nop

0804983c <_ZNKSt6vectorIP4cardSaIS1_EE8capacityEv>:
 804983c:	55                   	push   %ebp
 804983d:	89 e5                	mov    %esp,%ebp
 804983f:	8b 45 08             	mov    0x8(%ebp),%eax
 8049842:	8b 40 08             	mov    0x8(%eax),%eax
 8049845:	89 c2                	mov    %eax,%edx
 8049847:	8b 45 08             	mov    0x8(%ebp),%eax
 804984a:	8b 00                	mov    (%eax),%eax
 804984c:	29 c2                	sub    %eax,%edx
 804984e:	89 d0                	mov    %edx,%eax
 8049850:	c1 f8 02             	sar    $0x2,%eax
 8049853:	5d                   	pop    %ebp
 8049854:	c3                   	ret    
 8049855:	90                   	nop

08049856 <_ZNSt6vectorIP4cardSaIS1_EE20_M_allocate_and_copyIPS1_EES5_jT_S6_>:
 8049856:	55                   	push   %ebp
 8049857:	89 e5                	mov    %esp,%ebp
 8049859:	53                   	push   %ebx
 804985a:	83 ec 14             	sub    $0x14,%esp
 804985d:	8b 45 08             	mov    0x8(%ebp),%eax
 8049860:	83 ec 08             	sub    $0x8,%esp
 8049863:	ff 75 0c             	pushl  0xc(%ebp)
 8049866:	50                   	push   %eax
 8049867:	e8 d4 03 00 00       	call   8049c40 <_ZNSt12_Vector_baseIP4cardSaIS1_EE11_M_allocateEj>
 804986c:	83 c4 10             	add    $0x10,%esp
 804986f:	89 45 f4             	mov    %eax,-0xc(%ebp)
 8049872:	8b 45 08             	mov    0x8(%ebp),%eax
 8049875:	83 ec 0c             	sub    $0xc,%esp
 8049878:	50                   	push   %eax
 8049879:	e8 58 00 00 00       	call   80498d6 <_ZNSt12_Vector_baseIP4cardSaIS1_EE19_M_get_Tp_allocatorEv>
 804987e:	83 c4 10             	add    $0x10,%esp
 8049881:	50                   	push   %eax
 8049882:	ff 75 f4             	pushl  -0xc(%ebp)
 8049885:	ff 75 14             	pushl  0x14(%ebp)
 8049888:	ff 75 10             	pushl  0x10(%ebp)
 804988b:	e8 d7 03 00 00       	call   8049c67 <_ZSt22__uninitialized_copy_aIPP4cardS2_S1_ET0_T_S4_S3_RSaIT1_E>
 8049890:	83 c4 10             	add    $0x10,%esp
 8049893:	8b 45 f4             	mov    -0xc(%ebp),%eax
 8049896:	eb 38                	jmp    80498d0 <_ZNSt6vectorIP4cardSaIS1_EE20_M_allocate_and_copyIPS1_EES5_jT_S6_+0x7a>
 8049898:	89 c3                	mov    %eax,%ebx
 804989a:	e8 21 f0 ff ff       	call   80488c0 <__cxa_end_catch@plt>
 804989f:	89 d8                	mov    %ebx,%eax
 80498a1:	83 ec 0c             	sub    $0xc,%esp
 80498a4:	50                   	push   %eax
 80498a5:	e8 76 f0 ff ff       	call   8048920 <_Unwind_Resume@plt>
 80498aa:	83 ec 0c             	sub    $0xc,%esp
 80498ad:	50                   	push   %eax
 80498ae:	e8 4d f0 ff ff       	call   8048900 <__cxa_begin_catch@plt>
 80498b3:	83 c4 10             	add    $0x10,%esp
 80498b6:	8b 45 08             	mov    0x8(%ebp),%eax
 80498b9:	83 ec 04             	sub    $0x4,%esp
 80498bc:	ff 75 0c             	pushl  0xc(%ebp)
 80498bf:	ff 75 f4             	pushl  -0xc(%ebp)
 80498c2:	50                   	push   %eax
 80498c3:	e8 30 00 00 00       	call   80498f8 <_ZNSt12_Vector_baseIP4cardSaIS1_EE13_M_deallocateEPS1_j>
 80498c8:	83 c4 10             	add    $0x10,%esp
 80498cb:	e8 50 ef ff ff       	call   8048820 <__cxa_rethrow@plt>
 80498d0:	8b 5d fc             	mov    -0x4(%ebp),%ebx
 80498d3:	c9                   	leave  
 80498d4:	c3                   	ret    
 80498d5:	90                   	nop

080498d6 <_ZNSt12_Vector_baseIP4cardSaIS1_EE19_M_get_Tp_allocatorEv>:
 80498d6:	55                   	push   %ebp
 80498d7:	89 e5                	mov    %esp,%ebp
 80498d9:	8b 45 08             	mov    0x8(%ebp),%eax
 80498dc:	5d                   	pop    %ebp
 80498dd:	c3                   	ret    

080498de <_ZSt8_DestroyIPP4cardS1_EvT_S3_RSaIT0_E>:
 80498de:	55                   	push   %ebp
 80498df:	89 e5                	mov    %esp,%ebp
 80498e1:	83 ec 08             	sub    $0x8,%esp
 80498e4:	83 ec 08             	sub    $0x8,%esp
 80498e7:	ff 75 0c             	pushl  0xc(%ebp)
 80498ea:	ff 75 08             	pushl  0x8(%ebp)
 80498ed:	e8 91 03 00 00       	call   8049c83 <_ZSt8_DestroyIPP4cardEvT_S3_>
 80498f2:	83 c4 10             	add    $0x10,%esp
 80498f5:	c9                   	leave  
 80498f6:	c3                   	ret    
 80498f7:	90                   	nop

080498f8 <_ZNSt12_Vector_baseIP4cardSaIS1_EE13_M_deallocateEPS1_j>:
 80498f8:	55                   	push   %ebp
 80498f9:	89 e5                	mov    %esp,%ebp
 80498fb:	83 ec 08             	sub    $0x8,%esp
 80498fe:	83 7d 0c 00          	cmpl   $0x0,0xc(%ebp)
 8049902:	74 15                	je     8049919 <_ZNSt12_Vector_baseIP4cardSaIS1_EE13_M_deallocateEPS1_j+0x21>
 8049904:	8b 45 08             	mov    0x8(%ebp),%eax
 8049907:	83 ec 04             	sub    $0x4,%esp
 804990a:	ff 75 10             	pushl  0x10(%ebp)
 804990d:	ff 75 0c             	pushl  0xc(%ebp)
 8049910:	50                   	push   %eax
 8049911:	e8 86 03 00 00       	call   8049c9c <_ZN9__gnu_cxx14__alloc_traitsISaIP4cardEE10deallocateERS3_PS2_j>
 8049916:	83 c4 10             	add    $0x10,%esp
 8049919:	c9                   	leave  
 804991a:	c3                   	ret    

0804991b <_ZN9__gnu_cxx14__alloc_traitsISaIP4cardEE9constructIS2_EEvRS3_PS2_RKT_>:
 804991b:	55                   	push   %ebp
 804991c:	89 e5                	mov    %esp,%ebp
 804991e:	83 ec 08             	sub    $0x8,%esp
 8049921:	83 ec 04             	sub    $0x4,%esp
 8049924:	ff 75 10             	pushl  0x10(%ebp)
 8049927:	ff 75 0c             	pushl  0xc(%ebp)
 804992a:	ff 75 08             	pushl  0x8(%ebp)
 804992d:	e8 86 03 00 00       	call   8049cb8 <_ZN9__gnu_cxx13new_allocatorIP4cardE9constructEPS2_RKS2_>
 8049932:	83 c4 10             	add    $0x10,%esp
 8049935:	c9                   	leave  
 8049936:	c3                   	ret    
 8049937:	90                   	nop

08049938 <_ZNSt6vectorIP4cardSaIS1_EE13_M_insert_auxEN9__gnu_cxx17__normal_iteratorIPS1_S3_EERKS1_>:
 8049938:	55                   	push   %ebp
 8049939:	89 e5                	mov    %esp,%ebp
 804993b:	56                   	push   %esi
 804993c:	53                   	push   %ebx
 804993d:	83 ec 20             	sub    $0x20,%esp
 8049940:	8b 45 08             	mov    0x8(%ebp),%eax
 8049943:	8b 50 04             	mov    0x4(%eax),%edx
 8049946:	8b 45 08             	mov    0x8(%ebp),%eax
 8049949:	8b 40 08             	mov    0x8(%eax),%eax
 804994c:	39 c2                	cmp    %eax,%edx
 804994e:	0f 84 83 00 00 00    	je     80499d7 <_ZNSt6vectorIP4cardSaIS1_EE13_M_insert_auxEN9__gnu_cxx17__normal_iteratorIPS1_S3_EERKS1_+0x9f>
 8049954:	8b 45 08             	mov    0x8(%ebp),%eax
 8049957:	8b 40 04             	mov    0x4(%eax),%eax
 804995a:	8d 48 fc             	lea    -0x4(%eax),%ecx
 804995d:	8b 45 08             	mov    0x8(%ebp),%eax
 8049960:	8b 50 04             	mov    0x4(%eax),%edx
 8049963:	8b 45 08             	mov    0x8(%ebp),%eax
 8049966:	83 ec 04             	sub    $0x4,%esp
 8049969:	51                   	push   %ecx
 804996a:	52                   	push   %edx
 804996b:	50                   	push   %eax
 804996c:	e8 aa ff ff ff       	call   804991b <_ZN9__gnu_cxx14__alloc_traitsISaIP4cardEE9constructIS2_EEvRS3_PS2_RKT_>
 8049971:	83 c4 10             	add    $0x10,%esp
 8049974:	8b 45 08             	mov    0x8(%ebp),%eax
 8049977:	8b 40 04             	mov    0x4(%eax),%eax
 804997a:	8d 50 04             	lea    0x4(%eax),%edx
 804997d:	8b 45 08             	mov    0x8(%ebp),%eax
 8049980:	89 50 04             	mov    %edx,0x4(%eax)
 8049983:	8b 45 10             	mov    0x10(%ebp),%eax
 8049986:	8b 00                	mov    (%eax),%eax
 8049988:	89 45 e8             	mov    %eax,-0x18(%ebp)
 804998b:	8b 45 08             	mov    0x8(%ebp),%eax
 804998e:	8b 40 04             	mov    0x4(%eax),%eax
 8049991:	8d 70 fc             	lea    -0x4(%eax),%esi
 8049994:	8b 45 08             	mov    0x8(%ebp),%eax
 8049997:	8b 40 04             	mov    0x4(%eax),%eax
 804999a:	8d 58 f8             	lea    -0x8(%eax),%ebx
 804999d:	83 ec 0c             	sub    $0xc,%esp
 80499a0:	8d 45 0c             	lea    0xc(%ebp),%eax
 80499a3:	50                   	push   %eax
 80499a4:	e8 67 fe ff ff       	call   8049810 <_ZNK9__gnu_cxx17__normal_iteratorIPP4cardSt6vectorIS2_SaIS2_EEE4baseEv>
 80499a9:	83 c4 10             	add    $0x10,%esp
 80499ac:	8b 00                	mov    (%eax),%eax
 80499ae:	83 ec 04             	sub    $0x4,%esp
 80499b1:	56                   	push   %esi
 80499b2:	53                   	push   %ebx
 80499b3:	50                   	push   %eax
 80499b4:	e8 23 03 00 00       	call   8049cdc <_ZSt13copy_backwardIPP4cardS2_ET0_T_S4_S3_>
 80499b9:	83 c4 10             	add    $0x10,%esp
 80499bc:	83 ec 0c             	sub    $0xc,%esp
 80499bf:	8d 45 0c             	lea    0xc(%ebp),%eax
 80499c2:	50                   	push   %eax
 80499c3:	e8 0a fc ff ff       	call   80495d2 <_ZNK9__gnu_cxx17__normal_iteratorIPP4cardSt6vectorIS2_SaIS2_EEEdeEv>
 80499c8:	83 c4 10             	add    $0x10,%esp
 80499cb:	89 c2                	mov    %eax,%edx
 80499cd:	8b 45 e8             	mov    -0x18(%ebp),%eax
 80499d0:	89 02                	mov    %eax,(%edx)
 80499d2:	e9 fa 01 00 00       	jmp    8049bd1 <_ZNSt6vectorIP4cardSaIS1_EE13_M_insert_auxEN9__gnu_cxx17__normal_iteratorIPS1_S3_EERKS1_+0x299>
 80499d7:	83 ec 04             	sub    $0x4,%esp
 80499da:	68 e2 aa 04 08       	push   $0x804aae2
 80499df:	6a 01                	push   $0x1
 80499e1:	ff 75 08             	pushl  0x8(%ebp)
 80499e4:	e8 2d 03 00 00       	call   8049d16 <_ZNKSt6vectorIP4cardSaIS1_EE12_M_check_lenEjPKc>
 80499e9:	83 c4 10             	add    $0x10,%esp
 80499ec:	89 45 ec             	mov    %eax,-0x14(%ebp)
 80499ef:	8d 45 e0             	lea    -0x20(%ebp),%eax
 80499f2:	83 ec 08             	sub    $0x8,%esp
 80499f5:	ff 75 08             	pushl  0x8(%ebp)
 80499f8:	50                   	push   %eax
 80499f9:	e8 4a fb ff ff       	call   8049548 <_ZNSt6vectorIP4cardSaIS1_EE5beginEv>
 80499fe:	83 c4 0c             	add    $0xc,%esp
 8049a01:	83 ec 08             	sub    $0x8,%esp
 8049a04:	8d 45 e0             	lea    -0x20(%ebp),%eax
 8049a07:	50                   	push   %eax
 8049a08:	8d 45 0c             	lea    0xc(%ebp),%eax
 8049a0b:	50                   	push   %eax
 8049a0c:	e8 be 03 00 00       	call   8049dcf <_ZN9__gnu_cxxmiIPP4cardSt6vectorIS2_SaIS2_EEEENS_17__normal_iteratorIT_T0_E15difference_typeERKSA_SD_>
 8049a11:	83 c4 10             	add    $0x10,%esp
 8049a14:	89 45 f0             	mov    %eax,-0x10(%ebp)
 8049a17:	8b 45 08             	mov    0x8(%ebp),%eax
 8049a1a:	83 ec 08             	sub    $0x8,%esp
 8049a1d:	ff 75 ec             	pushl  -0x14(%ebp)
 8049a20:	50                   	push   %eax
 8049a21:	e8 1a 02 00 00       	call   8049c40 <_ZNSt12_Vector_baseIP4cardSaIS1_EE11_M_allocateEj>
 8049a26:	83 c4 10             	add    $0x10,%esp
 8049a29:	89 45 f4             	mov    %eax,-0xc(%ebp)
 8049a2c:	8b 45 f4             	mov    -0xc(%ebp),%eax
 8049a2f:	89 45 e4             	mov    %eax,-0x1c(%ebp)
 8049a32:	8b 45 f0             	mov    -0x10(%ebp),%eax
 8049a35:	8d 14 85 00 00 00 00 	lea    0x0(,%eax,4),%edx
 8049a3c:	8b 45 f4             	mov    -0xc(%ebp),%eax
 8049a3f:	01 c2                	add    %eax,%edx
 8049a41:	8b 45 08             	mov    0x8(%ebp),%eax
 8049a44:	83 ec 04             	sub    $0x4,%esp
 8049a47:	ff 75 10             	pushl  0x10(%ebp)
 8049a4a:	52                   	push   %edx
 8049a4b:	50                   	push   %eax
 8049a4c:	e8 ca fe ff ff       	call   804991b <_ZN9__gnu_cxx14__alloc_traitsISaIP4cardEE9constructIS2_EEvRS3_PS2_RKT_>
 8049a51:	83 c4 10             	add    $0x10,%esp
 8049a54:	c7 45 e4 00 00 00 00 	movl   $0x0,-0x1c(%ebp)
 8049a5b:	8b 45 08             	mov    0x8(%ebp),%eax
 8049a5e:	83 ec 0c             	sub    $0xc,%esp
 8049a61:	50                   	push   %eax
 8049a62:	e8 6f fe ff ff       	call   80498d6 <_ZNSt12_Vector_baseIP4cardSaIS1_EE19_M_get_Tp_allocatorEv>
 8049a67:	83 c4 10             	add    $0x10,%esp
 8049a6a:	89 c3                	mov    %eax,%ebx
 8049a6c:	83 ec 0c             	sub    $0xc,%esp
 8049a6f:	8d 45 0c             	lea    0xc(%ebp),%eax
 8049a72:	50                   	push   %eax
 8049a73:	e8 98 fd ff ff       	call   8049810 <_ZNK9__gnu_cxx17__normal_iteratorIPP4cardSt6vectorIS2_SaIS2_EEE4baseEv>
 8049a78:	83 c4 10             	add    $0x10,%esp
 8049a7b:	8b 10                	mov    (%eax),%edx
 8049a7d:	8b 45 08             	mov    0x8(%ebp),%eax
 8049a80:	8b 00                	mov    (%eax),%eax
 8049a82:	53                   	push   %ebx
 8049a83:	ff 75 f4             	pushl  -0xc(%ebp)
 8049a86:	52                   	push   %edx
 8049a87:	50                   	push   %eax
 8049a88:	e8 77 03 00 00       	call   8049e04 <_ZSt34__uninitialized_move_if_noexcept_aIPP4cardS2_SaIS1_EET0_T_S5_S4_RT1_>
 8049a8d:	83 c4 10             	add    $0x10,%esp
 8049a90:	89 45 e4             	mov    %eax,-0x1c(%ebp)
 8049a93:	83 45 e4 04          	addl   $0x4,-0x1c(%ebp)
 8049a97:	8b 45 08             	mov    0x8(%ebp),%eax
 8049a9a:	83 ec 0c             	sub    $0xc,%esp
 8049a9d:	50                   	push   %eax
 8049a9e:	e8 33 fe ff ff       	call   80498d6 <_ZNSt12_Vector_baseIP4cardSaIS1_EE19_M_get_Tp_allocatorEv>
 8049aa3:	83 c4 10             	add    $0x10,%esp
 8049aa6:	89 c6                	mov    %eax,%esi
 8049aa8:	8b 45 08             	mov    0x8(%ebp),%eax
 8049aab:	8b 58 04             	mov    0x4(%eax),%ebx
 8049aae:	83 ec 0c             	sub    $0xc,%esp
 8049ab1:	8d 45 0c             	lea    0xc(%ebp),%eax
 8049ab4:	50                   	push   %eax
 8049ab5:	e8 56 fd ff ff       	call   8049810 <_ZNK9__gnu_cxx17__normal_iteratorIPP4cardSt6vectorIS2_SaIS2_EEE4baseEv>
 8049aba:	83 c4 10             	add    $0x10,%esp
 8049abd:	8b 00                	mov    (%eax),%eax
 8049abf:	56                   	push   %esi
 8049ac0:	ff 75 e4             	pushl  -0x1c(%ebp)
 8049ac3:	53                   	push   %ebx
 8049ac4:	50                   	push   %eax
 8049ac5:	e8 3a 03 00 00       	call   8049e04 <_ZSt34__uninitialized_move_if_noexcept_aIPP4cardS2_SaIS1_EET0_T_S5_S4_RT1_>
 8049aca:	83 c4 10             	add    $0x10,%esp
 8049acd:	89 45 e4             	mov    %eax,-0x1c(%ebp)
 8049ad0:	8b 45 08             	mov    0x8(%ebp),%eax
 8049ad3:	83 ec 0c             	sub    $0xc,%esp
 8049ad6:	50                   	push   %eax
 8049ad7:	e8 fa fd ff ff       	call   80498d6 <_ZNSt12_Vector_baseIP4cardSaIS1_EE19_M_get_Tp_allocatorEv>
 8049adc:	83 c4 10             	add    $0x10,%esp
 8049adf:	89 c1                	mov    %eax,%ecx
 8049ae1:	8b 45 08             	mov    0x8(%ebp),%eax
 8049ae4:	8b 50 04             	mov    0x4(%eax),%edx
 8049ae7:	8b 45 08             	mov    0x8(%ebp),%eax
 8049aea:	8b 00                	mov    (%eax),%eax
 8049aec:	83 ec 04             	sub    $0x4,%esp
 8049aef:	51                   	push   %ecx
 8049af0:	52                   	push   %edx
 8049af1:	50                   	push   %eax
 8049af2:	e8 e7 fd ff ff       	call   80498de <_ZSt8_DestroyIPP4cardS1_EvT_S3_RSaIT0_E>
 8049af7:	83 c4 10             	add    $0x10,%esp
 8049afa:	8b 45 08             	mov    0x8(%ebp),%eax
 8049afd:	8b 40 08             	mov    0x8(%eax),%eax
 8049b00:	89 c2                	mov    %eax,%edx
 8049b02:	8b 45 08             	mov    0x8(%ebp),%eax
 8049b05:	8b 00                	mov    (%eax),%eax
 8049b07:	29 c2                	sub    %eax,%edx
 8049b09:	89 d0                	mov    %edx,%eax
 8049b0b:	c1 f8 02             	sar    $0x2,%eax
 8049b0e:	89 c1                	mov    %eax,%ecx
 8049b10:	8b 45 08             	mov    0x8(%ebp),%eax
 8049b13:	8b 10                	mov    (%eax),%edx
 8049b15:	8b 45 08             	mov    0x8(%ebp),%eax
 8049b18:	83 ec 04             	sub    $0x4,%esp
 8049b1b:	51                   	push   %ecx
 8049b1c:	52                   	push   %edx
 8049b1d:	50                   	push   %eax
 8049b1e:	e8 d5 fd ff ff       	call   80498f8 <_ZNSt12_Vector_baseIP4cardSaIS1_EE13_M_deallocateEPS1_j>
 8049b23:	83 c4 10             	add    $0x10,%esp
 8049b26:	8b 45 08             	mov    0x8(%ebp),%eax
 8049b29:	8b 55 f4             	mov    -0xc(%ebp),%edx
 8049b2c:	89 10                	mov    %edx,(%eax)
 8049b2e:	8b 45 08             	mov    0x8(%ebp),%eax
 8049b31:	8b 55 e4             	mov    -0x1c(%ebp),%edx
 8049b34:	89 50 04             	mov    %edx,0x4(%eax)
 8049b37:	8b 45 ec             	mov    -0x14(%ebp),%eax
 8049b3a:	8d 14 85 00 00 00 00 	lea    0x0(,%eax,4),%edx
 8049b41:	8b 45 f4             	mov    -0xc(%ebp),%eax
 8049b44:	01 c2                	add    %eax,%edx
 8049b46:	8b 45 08             	mov    0x8(%ebp),%eax
 8049b49:	89 50 08             	mov    %edx,0x8(%eax)
 8049b4c:	e9 80 00 00 00       	jmp    8049bd1 <_ZNSt6vectorIP4cardSaIS1_EE13_M_insert_auxEN9__gnu_cxx17__normal_iteratorIPS1_S3_EERKS1_+0x299>
 8049b51:	89 c3                	mov    %eax,%ebx
 8049b53:	e8 68 ed ff ff       	call   80488c0 <__cxa_end_catch@plt>
 8049b58:	89 d8                	mov    %ebx,%eax
 8049b5a:	83 ec 0c             	sub    $0xc,%esp
 8049b5d:	50                   	push   %eax
 8049b5e:	e8 bd ed ff ff       	call   8048920 <_Unwind_Resume@plt>
 8049b63:	83 ec 0c             	sub    $0xc,%esp
 8049b66:	50                   	push   %eax
 8049b67:	e8 94 ed ff ff       	call   8048900 <__cxa_begin_catch@plt>
 8049b6c:	83 c4 10             	add    $0x10,%esp
 8049b6f:	83 7d e4 00          	cmpl   $0x0,-0x1c(%ebp)
 8049b73:	75 21                	jne    8049b96 <_ZNSt6vectorIP4cardSaIS1_EE13_M_insert_auxEN9__gnu_cxx17__normal_iteratorIPS1_S3_EERKS1_+0x25e>
 8049b75:	8b 45 f0             	mov    -0x10(%ebp),%eax
 8049b78:	8d 14 85 00 00 00 00 	lea    0x0(,%eax,4),%edx
 8049b7f:	8b 45 f4             	mov    -0xc(%ebp),%eax
 8049b82:	01 c2                	add    %eax,%edx
 8049b84:	8b 45 08             	mov    0x8(%ebp),%eax
 8049b87:	83 ec 08             	sub    $0x8,%esp
 8049b8a:	52                   	push   %edx
 8049b8b:	50                   	push   %eax
 8049b8c:	e8 8f 02 00 00       	call   8049e20 <_ZN9__gnu_cxx14__alloc_traitsISaIP4cardEE7destroyERS3_PS2_>
 8049b91:	83 c4 10             	add    $0x10,%esp
 8049b94:	eb 21                	jmp    8049bb7 <_ZNSt6vectorIP4cardSaIS1_EE13_M_insert_auxEN9__gnu_cxx17__normal_iteratorIPS1_S3_EERKS1_+0x27f>
 8049b96:	8b 45 08             	mov    0x8(%ebp),%eax
 8049b99:	83 ec 0c             	sub    $0xc,%esp
 8049b9c:	50                   	push   %eax
 8049b9d:	e8 34 fd ff ff       	call   80498d6 <_ZNSt12_Vector_baseIP4cardSaIS1_EE19_M_get_Tp_allocatorEv>
 8049ba2:	83 c4 10             	add    $0x10,%esp
 8049ba5:	83 ec 04             	sub    $0x4,%esp
 8049ba8:	50                   	push   %eax
 8049ba9:	ff 75 e4             	pushl  -0x1c(%ebp)
 8049bac:	ff 75 f4             	pushl  -0xc(%ebp)
 8049baf:	e8 2a fd ff ff       	call   80498de <_ZSt8_DestroyIPP4cardS1_EvT_S3_RSaIT0_E>
 8049bb4:	83 c4 10             	add    $0x10,%esp
 8049bb7:	8b 45 08             	mov    0x8(%ebp),%eax
 8049bba:	83 ec 04             	sub    $0x4,%esp
 8049bbd:	ff 75 ec             	pushl  -0x14(%ebp)
 8049bc0:	ff 75 f4             	pushl  -0xc(%ebp)
 8049bc3:	50                   	push   %eax
 8049bc4:	e8 2f fd ff ff       	call   80498f8 <_ZNSt12_Vector_baseIP4cardSaIS1_EE13_M_deallocateEPS1_j>
 8049bc9:	83 c4 10             	add    $0x10,%esp
 8049bcc:	e8 4f ec ff ff       	call   8048820 <__cxa_rethrow@plt>
 8049bd1:	8d 65 f8             	lea    -0x8(%ebp),%esp
 8049bd4:	5b                   	pop    %ebx
 8049bd5:	5e                   	pop    %esi
 8049bd6:	5d                   	pop    %ebp
 8049bd7:	c3                   	ret    

08049bd8 <_ZNSt12_Vector_baseIP4cardSaIS1_EE12_Vector_implC1Ev>:
 8049bd8:	55                   	push   %ebp
 8049bd9:	89 e5                	mov    %esp,%ebp
 8049bdb:	83 ec 08             	sub    $0x8,%esp
 8049bde:	83 ec 0c             	sub    $0xc,%esp
 8049be1:	ff 75 08             	pushl  0x8(%ebp)
 8049be4:	e8 51 02 00 00       	call   8049e3a <_ZNSaIP4cardEC1Ev>
 8049be9:	83 c4 10             	add    $0x10,%esp
 8049bec:	8b 45 08             	mov    0x8(%ebp),%eax
 8049bef:	c7 00 00 00 00 00    	movl   $0x0,(%eax)
 8049bf5:	8b 45 08             	mov    0x8(%ebp),%eax
 8049bf8:	c7 40 04 00 00 00 00 	movl   $0x0,0x4(%eax)
 8049bff:	8b 45 08             	mov    0x8(%ebp),%eax
 8049c02:	c7 40 08 00 00 00 00 	movl   $0x0,0x8(%eax)
 8049c09:	c9                   	leave  
 8049c0a:	c3                   	ret    
 8049c0b:	90                   	nop

08049c0c <_ZNSaIP4cardED1Ev>:
 8049c0c:	55                   	push   %ebp
 8049c0d:	89 e5                	mov    %esp,%ebp
 8049c0f:	83 ec 08             	sub    $0x8,%esp
 8049c12:	83 ec 0c             	sub    $0xc,%esp
 8049c15:	ff 75 08             	pushl  0x8(%ebp)
 8049c18:	e8 33 02 00 00       	call   8049e50 <_ZN9__gnu_cxx13new_allocatorIP4cardED1Ev>
 8049c1d:	83 c4 10             	add    $0x10,%esp
 8049c20:	c9                   	leave  
 8049c21:	c3                   	ret    

08049c22 <_ZN9__gnu_cxx14__alloc_traitsISaIP4cardEE8max_sizeERKS3_>:
 8049c22:	55                   	push   %ebp
 8049c23:	89 e5                	mov    %esp,%ebp
 8049c25:	83 ec 08             	sub    $0x8,%esp
 8049c28:	83 ec 0c             	sub    $0xc,%esp
 8049c2b:	ff 75 08             	pushl  0x8(%ebp)
 8049c2e:	e8 23 02 00 00       	call   8049e56 <_ZNK9__gnu_cxx13new_allocatorIP4cardE8max_sizeEv>
 8049c33:	83 c4 10             	add    $0x10,%esp
 8049c36:	c9                   	leave  
 8049c37:	c3                   	ret    

08049c38 <_ZNKSt12_Vector_baseIP4cardSaIS1_EE19_M_get_Tp_allocatorEv>:
 8049c38:	55                   	push   %ebp
 8049c39:	89 e5                	mov    %esp,%ebp
 8049c3b:	8b 45 08             	mov    0x8(%ebp),%eax
 8049c3e:	5d                   	pop    %ebp
 8049c3f:	c3                   	ret    

08049c40 <_ZNSt12_Vector_baseIP4cardSaIS1_EE11_M_allocateEj>:
 8049c40:	55                   	push   %ebp
 8049c41:	89 e5                	mov    %esp,%ebp
 8049c43:	83 ec 08             	sub    $0x8,%esp
 8049c46:	83 7d 0c 00          	cmpl   $0x0,0xc(%ebp)
 8049c4a:	74 14                	je     8049c60 <_ZNSt12_Vector_baseIP4cardSaIS1_EE11_M_allocateEj+0x20>
 8049c4c:	8b 45 08             	mov    0x8(%ebp),%eax
 8049c4f:	83 ec 08             	sub    $0x8,%esp
 8049c52:	ff 75 0c             	pushl  0xc(%ebp)
 8049c55:	50                   	push   %eax
 8049c56:	e8 05 02 00 00       	call   8049e60 <_ZN9__gnu_cxx14__alloc_traitsISaIP4cardEE8allocateERS3_j>
 8049c5b:	83 c4 10             	add    $0x10,%esp
 8049c5e:	eb 05                	jmp    8049c65 <_ZNSt12_Vector_baseIP4cardSaIS1_EE11_M_allocateEj+0x25>
 8049c60:	b8 00 00 00 00       	mov    $0x0,%eax
 8049c65:	c9                   	leave  
 8049c66:	c3                   	ret    

08049c67 <_ZSt22__uninitialized_copy_aIPP4cardS2_S1_ET0_T_S4_S3_RSaIT1_E>:
 8049c67:	55                   	push   %ebp
 8049c68:	89 e5                	mov    %esp,%ebp
 8049c6a:	83 ec 08             	sub    $0x8,%esp
 8049c6d:	83 ec 04             	sub    $0x4,%esp
 8049c70:	ff 75 10             	pushl  0x10(%ebp)
 8049c73:	ff 75 0c             	pushl  0xc(%ebp)
 8049c76:	ff 75 08             	pushl  0x8(%ebp)
 8049c79:	e8 fd 01 00 00       	call   8049e7b <_ZSt18uninitialized_copyIPP4cardS2_ET0_T_S4_S3_>
 8049c7e:	83 c4 10             	add    $0x10,%esp
 8049c81:	c9                   	leave  
 8049c82:	c3                   	ret    

08049c83 <_ZSt8_DestroyIPP4cardEvT_S3_>:
 8049c83:	55                   	push   %ebp
 8049c84:	89 e5                	mov    %esp,%ebp
 8049c86:	83 ec 08             	sub    $0x8,%esp
 8049c89:	83 ec 08             	sub    $0x8,%esp
 8049c8c:	ff 75 0c             	pushl  0xc(%ebp)
 8049c8f:	ff 75 08             	pushl  0x8(%ebp)
 8049c92:	e8 04 02 00 00       	call   8049e9b <_ZNSt12_Destroy_auxILb1EE9__destroyIPP4cardEEvT_S5_>
 8049c97:	83 c4 10             	add    $0x10,%esp
 8049c9a:	c9                   	leave  
 8049c9b:	c3                   	ret    

08049c9c <_ZN9__gnu_cxx14__alloc_traitsISaIP4cardEE10deallocateERS3_PS2_j>:
 8049c9c:	55                   	push   %ebp
 8049c9d:	89 e5                	mov    %esp,%ebp
 8049c9f:	83 ec 08             	sub    $0x8,%esp
 8049ca2:	83 ec 04             	sub    $0x4,%esp
 8049ca5:	ff 75 10             	pushl  0x10(%ebp)
 8049ca8:	ff 75 0c             	pushl  0xc(%ebp)
 8049cab:	ff 75 08             	pushl  0x8(%ebp)
 8049cae:	e8 ed 01 00 00       	call   8049ea0 <_ZN9__gnu_cxx13new_allocatorIP4cardE10deallocateEPS2_j>
 8049cb3:	83 c4 10             	add    $0x10,%esp
 8049cb6:	c9                   	leave  
 8049cb7:	c3                   	ret    

08049cb8 <_ZN9__gnu_cxx13new_allocatorIP4cardE9constructEPS2_RKS2_>:
 8049cb8:	55                   	push   %ebp
 8049cb9:	89 e5                	mov    %esp,%ebp
 8049cbb:	83 ec 08             	sub    $0x8,%esp
 8049cbe:	8b 45 0c             	mov    0xc(%ebp),%eax
 8049cc1:	83 ec 08             	sub    $0x8,%esp
 8049cc4:	50                   	push   %eax
 8049cc5:	6a 04                	push   $0x4
 8049cc7:	e8 2d f8 ff ff       	call   80494f9 <_ZnwjPv>
 8049ccc:	83 c4 10             	add    $0x10,%esp
 8049ccf:	85 c0                	test   %eax,%eax
 8049cd1:	74 07                	je     8049cda <_ZN9__gnu_cxx13new_allocatorIP4cardE9constructEPS2_RKS2_+0x22>
 8049cd3:	8b 55 10             	mov    0x10(%ebp),%edx
 8049cd6:	8b 12                	mov    (%edx),%edx
 8049cd8:	89 10                	mov    %edx,(%eax)
 8049cda:	c9                   	leave  
 8049cdb:	c3                   	ret    

08049cdc <_ZSt13copy_backwardIPP4cardS2_ET0_T_S4_S3_>:
 8049cdc:	55                   	push   %ebp
 8049cdd:	89 e5                	mov    %esp,%ebp
 8049cdf:	53                   	push   %ebx
 8049ce0:	83 ec 04             	sub    $0x4,%esp
 8049ce3:	83 ec 0c             	sub    $0xc,%esp
 8049ce6:	ff 75 0c             	pushl  0xc(%ebp)
 8049ce9:	e8 c8 01 00 00       	call   8049eb6 <_ZSt12__miter_baseIPP4cardENSt11_Miter_baseIT_E13iterator_typeES4_>
 8049cee:	83 c4 10             	add    $0x10,%esp
 8049cf1:	89 c3                	mov    %eax,%ebx
 8049cf3:	83 ec 0c             	sub    $0xc,%esp
 8049cf6:	ff 75 08             	pushl  0x8(%ebp)
 8049cf9:	e8 b8 01 00 00       	call   8049eb6 <_ZSt12__miter_baseIPP4cardENSt11_Miter_baseIT_E13iterator_typeES4_>
 8049cfe:	83 c4 10             	add    $0x10,%esp
 8049d01:	83 ec 04             	sub    $0x4,%esp
 8049d04:	ff 75 10             	pushl  0x10(%ebp)
 8049d07:	53                   	push   %ebx
 8049d08:	50                   	push   %eax
 8049d09:	e8 be 01 00 00       	call   8049ecc <_ZSt23__copy_move_backward_a2ILb0EPP4cardS2_ET1_T0_S4_S3_>
 8049d0e:	83 c4 10             	add    $0x10,%esp
 8049d11:	8b 5d fc             	mov    -0x4(%ebp),%ebx
 8049d14:	c9                   	leave  
 8049d15:	c3                   	ret    

08049d16 <_ZNKSt6vectorIP4cardSaIS1_EE12_M_check_lenEjPKc>:
 8049d16:	55                   	push   %ebp
 8049d17:	89 e5                	mov    %esp,%ebp
 8049d19:	53                   	push   %ebx
 8049d1a:	83 ec 14             	sub    $0x14,%esp
 8049d1d:	83 ec 0c             	sub    $0xc,%esp
 8049d20:	ff 75 08             	pushl  0x8(%ebp)
 8049d23:	e8 f0 fa ff ff       	call   8049818 <_ZNKSt6vectorIP4cardSaIS1_EE8max_sizeEv>
 8049d28:	83 c4 10             	add    $0x10,%esp
 8049d2b:	89 c3                	mov    %eax,%ebx
 8049d2d:	83 ec 0c             	sub    $0xc,%esp
 8049d30:	ff 75 08             	pushl  0x8(%ebp)
 8049d33:	e8 a4 f8 ff ff       	call   80495dc <_ZNKSt6vectorIP4cardSaIS1_EE4sizeEv>
 8049d38:	83 c4 10             	add    $0x10,%esp
 8049d3b:	89 da                	mov    %ebx,%edx
 8049d3d:	29 c2                	sub    %eax,%edx
 8049d3f:	8b 45 0c             	mov    0xc(%ebp),%eax
 8049d42:	39 c2                	cmp    %eax,%edx
 8049d44:	0f 92 c0             	setb   %al
 8049d47:	84 c0                	test   %al,%al
 8049d49:	74 0b                	je     8049d56 <_ZNKSt6vectorIP4cardSaIS1_EE12_M_check_lenEjPKc+0x40>
 8049d4b:	83 ec 0c             	sub    $0xc,%esp
 8049d4e:	ff 75 10             	pushl  0x10(%ebp)
 8049d51:	e8 5a ea ff ff       	call   80487b0 <_ZSt20__throw_length_errorPKc@plt>
 8049d56:	83 ec 0c             	sub    $0xc,%esp
 8049d59:	ff 75 08             	pushl  0x8(%ebp)
 8049d5c:	e8 7b f8 ff ff       	call   80495dc <_ZNKSt6vectorIP4cardSaIS1_EE4sizeEv>
 8049d61:	83 c4 10             	add    $0x10,%esp
 8049d64:	89 c3                	mov    %eax,%ebx
 8049d66:	83 ec 0c             	sub    $0xc,%esp
 8049d69:	ff 75 08             	pushl  0x8(%ebp)
 8049d6c:	e8 6b f8 ff ff       	call   80495dc <_ZNKSt6vectorIP4cardSaIS1_EE4sizeEv>
 8049d71:	83 c4 10             	add    $0x10,%esp
 8049d74:	89 45 f0             	mov    %eax,-0x10(%ebp)
 8049d77:	83 ec 08             	sub    $0x8,%esp
 8049d7a:	8d 45 0c             	lea    0xc(%ebp),%eax
 8049d7d:	50                   	push   %eax
 8049d7e:	8d 45 f0             	lea    -0x10(%ebp),%eax
 8049d81:	50                   	push   %eax
 8049d82:	e8 8d 01 00 00       	call   8049f14 <_ZSt3maxIjERKT_S2_S2_>
 8049d87:	83 c4 10             	add    $0x10,%esp
 8049d8a:	8b 00                	mov    (%eax),%eax
 8049d8c:	01 d8                	add    %ebx,%eax
 8049d8e:	89 45 f4             	mov    %eax,-0xc(%ebp)
 8049d91:	83 ec 0c             	sub    $0xc,%esp
 8049d94:	ff 75 08             	pushl  0x8(%ebp)
 8049d97:	e8 40 f8 ff ff       	call   80495dc <_ZNKSt6vectorIP4cardSaIS1_EE4sizeEv>
 8049d9c:	83 c4 10             	add    $0x10,%esp
 8049d9f:	3b 45 f4             	cmp    -0xc(%ebp),%eax
 8049da2:	77 13                	ja     8049db7 <_ZNKSt6vectorIP4cardSaIS1_EE12_M_check_lenEjPKc+0xa1>
 8049da4:	83 ec 0c             	sub    $0xc,%esp
 8049da7:	ff 75 08             	pushl  0x8(%ebp)
 8049daa:	e8 69 fa ff ff       	call   8049818 <_ZNKSt6vectorIP4cardSaIS1_EE8max_sizeEv>
 8049daf:	83 c4 10             	add    $0x10,%esp
 8049db2:	3b 45 f4             	cmp    -0xc(%ebp),%eax
 8049db5:	73 10                	jae    8049dc7 <_ZNKSt6vectorIP4cardSaIS1_EE12_M_check_lenEjPKc+0xb1>
 8049db7:	83 ec 0c             	sub    $0xc,%esp
 8049dba:	ff 75 08             	pushl  0x8(%ebp)
 8049dbd:	e8 56 fa ff ff       	call   8049818 <_ZNKSt6vectorIP4cardSaIS1_EE8max_sizeEv>
 8049dc2:	83 c4 10             	add    $0x10,%esp
 8049dc5:	eb 03                	jmp    8049dca <_ZNKSt6vectorIP4cardSaIS1_EE12_M_check_lenEjPKc+0xb4>
 8049dc7:	8b 45 f4             	mov    -0xc(%ebp),%eax
 8049dca:	8b 5d fc             	mov    -0x4(%ebp),%ebx
 8049dcd:	c9                   	leave  
 8049dce:	c3                   	ret    

08049dcf <_ZN9__gnu_cxxmiIPP4cardSt6vectorIS2_SaIS2_EEEENS_17__normal_iteratorIT_T0_E15difference_typeERKSA_SD_>:
 8049dcf:	55                   	push   %ebp
 8049dd0:	89 e5                	mov    %esp,%ebp
 8049dd2:	53                   	push   %ebx
 8049dd3:	83 ec 04             	sub    $0x4,%esp
 8049dd6:	83 ec 0c             	sub    $0xc,%esp
 8049dd9:	ff 75 08             	pushl  0x8(%ebp)
 8049ddc:	e8 2f fa ff ff       	call   8049810 <_ZNK9__gnu_cxx17__normal_iteratorIPP4cardSt6vectorIS2_SaIS2_EEE4baseEv>
 8049de1:	83 c4 10             	add    $0x10,%esp
 8049de4:	8b 00                	mov    (%eax),%eax
 8049de6:	89 c3                	mov    %eax,%ebx
 8049de8:	83 ec 0c             	sub    $0xc,%esp
 8049deb:	ff 75 0c             	pushl  0xc(%ebp)
 8049dee:	e8 1d fa ff ff       	call   8049810 <_ZNK9__gnu_cxx17__normal_iteratorIPP4cardSt6vectorIS2_SaIS2_EEE4baseEv>
 8049df3:	83 c4 10             	add    $0x10,%esp
 8049df6:	8b 00                	mov    (%eax),%eax
 8049df8:	29 c3                	sub    %eax,%ebx
 8049dfa:	89 d8                	mov    %ebx,%eax
 8049dfc:	c1 f8 02             	sar    $0x2,%eax
 8049dff:	8b 5d fc             	mov    -0x4(%ebp),%ebx
 8049e02:	c9                   	leave  
 8049e03:	c3                   	ret    

08049e04 <_ZSt34__uninitialized_move_if_noexcept_aIPP4cardS2_SaIS1_EET0_T_S5_S4_RT1_>:
 8049e04:	55                   	push   %ebp
 8049e05:	89 e5                	mov    %esp,%ebp
 8049e07:	83 ec 08             	sub    $0x8,%esp
 8049e0a:	ff 75 14             	pushl  0x14(%ebp)
 8049e0d:	ff 75 10             	pushl  0x10(%ebp)
 8049e10:	ff 75 0c             	pushl  0xc(%ebp)
 8049e13:	ff 75 08             	pushl  0x8(%ebp)
 8049e16:	e8 4c fe ff ff       	call   8049c67 <_ZSt22__uninitialized_copy_aIPP4cardS2_S1_ET0_T_S4_S3_RSaIT1_E>
 8049e1b:	83 c4 10             	add    $0x10,%esp
 8049e1e:	c9                   	leave  
 8049e1f:	c3                   	ret    

08049e20 <_ZN9__gnu_cxx14__alloc_traitsISaIP4cardEE7destroyERS3_PS2_>:
 8049e20:	55                   	push   %ebp
 8049e21:	89 e5                	mov    %esp,%ebp
 8049e23:	83 ec 08             	sub    $0x8,%esp
 8049e26:	83 ec 08             	sub    $0x8,%esp
 8049e29:	ff 75 0c             	pushl  0xc(%ebp)
 8049e2c:	ff 75 08             	pushl  0x8(%ebp)
 8049e2f:	e8 fc 00 00 00       	call   8049f30 <_ZN9__gnu_cxx13new_allocatorIP4cardE7destroyEPS2_>
 8049e34:	83 c4 10             	add    $0x10,%esp
 8049e37:	c9                   	leave  
 8049e38:	c3                   	ret    
 8049e39:	90                   	nop

08049e3a <_ZNSaIP4cardEC1Ev>:
 8049e3a:	55                   	push   %ebp
 8049e3b:	89 e5                	mov    %esp,%ebp
 8049e3d:	83 ec 08             	sub    $0x8,%esp
 8049e40:	83 ec 0c             	sub    $0xc,%esp
 8049e43:	ff 75 08             	pushl  0x8(%ebp)
 8049e46:	e8 eb 00 00 00       	call   8049f36 <_ZN9__gnu_cxx13new_allocatorIP4cardEC1Ev>
 8049e4b:	83 c4 10             	add    $0x10,%esp
 8049e4e:	c9                   	leave  
 8049e4f:	c3                   	ret    

08049e50 <_ZN9__gnu_cxx13new_allocatorIP4cardED1Ev>:
 8049e50:	55                   	push   %ebp
 8049e51:	89 e5                	mov    %esp,%ebp
 8049e53:	5d                   	pop    %ebp
 8049e54:	c3                   	ret    
 8049e55:	90                   	nop

08049e56 <_ZNK9__gnu_cxx13new_allocatorIP4cardE8max_sizeEv>:
 8049e56:	55                   	push   %ebp
 8049e57:	89 e5                	mov    %esp,%ebp
 8049e59:	b8 ff ff ff 3f       	mov    $0x3fffffff,%eax
 8049e5e:	5d                   	pop    %ebp
 8049e5f:	c3                   	ret    

08049e60 <_ZN9__gnu_cxx14__alloc_traitsISaIP4cardEE8allocateERS3_j>:
 8049e60:	55                   	push   %ebp
 8049e61:	89 e5                	mov    %esp,%ebp
 8049e63:	83 ec 08             	sub    $0x8,%esp
 8049e66:	83 ec 04             	sub    $0x4,%esp
 8049e69:	6a 00                	push   $0x0
 8049e6b:	ff 75 0c             	pushl  0xc(%ebp)
 8049e6e:	ff 75 08             	pushl  0x8(%ebp)
 8049e71:	e8 c6 00 00 00       	call   8049f3c <_ZN9__gnu_cxx13new_allocatorIP4cardE8allocateEjPKv>
 8049e76:	83 c4 10             	add    $0x10,%esp
 8049e79:	c9                   	leave  
 8049e7a:	c3                   	ret    

08049e7b <_ZSt18uninitialized_copyIPP4cardS2_ET0_T_S4_S3_>:
 8049e7b:	55                   	push   %ebp
 8049e7c:	89 e5                	mov    %esp,%ebp
 8049e7e:	83 ec 18             	sub    $0x18,%esp
 8049e81:	c6 45 f7 01          	movb   $0x1,-0x9(%ebp)
 8049e85:	83 ec 04             	sub    $0x4,%esp
 8049e88:	ff 75 10             	pushl  0x10(%ebp)
 8049e8b:	ff 75 0c             	pushl  0xc(%ebp)
 8049e8e:	ff 75 08             	pushl  0x8(%ebp)
 8049e91:	e8 dd 00 00 00       	call   8049f73 <_ZNSt20__uninitialized_copyILb1EE13__uninit_copyIPP4cardS4_EET0_T_S6_S5_>
 8049e96:	83 c4 10             	add    $0x10,%esp
 8049e99:	c9                   	leave  
 8049e9a:	c3                   	ret    

08049e9b <_ZNSt12_Destroy_auxILb1EE9__destroyIPP4cardEEvT_S5_>:
 8049e9b:	55                   	push   %ebp
 8049e9c:	89 e5                	mov    %esp,%ebp
 8049e9e:	5d                   	pop    %ebp
 8049e9f:	c3                   	ret    

08049ea0 <_ZN9__gnu_cxx13new_allocatorIP4cardE10deallocateEPS2_j>:
 8049ea0:	55                   	push   %ebp
 8049ea1:	89 e5                	mov    %esp,%ebp
 8049ea3:	83 ec 08             	sub    $0x8,%esp
 8049ea6:	83 ec 0c             	sub    $0xc,%esp
 8049ea9:	ff 75 0c             	pushl  0xc(%ebp)
 8049eac:	e8 5f e9 ff ff       	call   8048810 <_ZdlPv@plt>
 8049eb1:	83 c4 10             	add    $0x10,%esp
 8049eb4:	c9                   	leave  
 8049eb5:	c3                   	ret    

08049eb6 <_ZSt12__miter_baseIPP4cardENSt11_Miter_baseIT_E13iterator_typeES4_>:
 8049eb6:	55                   	push   %ebp
 8049eb7:	89 e5                	mov    %esp,%ebp
 8049eb9:	83 ec 08             	sub    $0x8,%esp
 8049ebc:	83 ec 0c             	sub    $0xc,%esp
 8049ebf:	ff 75 08             	pushl  0x8(%ebp)
 8049ec2:	e8 c8 00 00 00       	call   8049f8f <_ZNSt10_Iter_baseIPP4cardLb0EE7_S_baseES2_>
 8049ec7:	83 c4 10             	add    $0x10,%esp
 8049eca:	c9                   	leave  
 8049ecb:	c3                   	ret    

08049ecc <_ZSt23__copy_move_backward_a2ILb0EPP4cardS2_ET1_T0_S4_S3_>:
 8049ecc:	55                   	push   %ebp
 8049ecd:	89 e5                	mov    %esp,%ebp
 8049ecf:	56                   	push   %esi
 8049ed0:	53                   	push   %ebx
 8049ed1:	83 ec 0c             	sub    $0xc,%esp
 8049ed4:	ff 75 10             	pushl  0x10(%ebp)
 8049ed7:	e8 bb 00 00 00       	call   8049f97 <_ZSt12__niter_baseIPP4cardENSt11_Niter_baseIT_E13iterator_typeES4_>
 8049edc:	83 c4 10             	add    $0x10,%esp
 8049edf:	89 c6                	mov    %eax,%esi
 8049ee1:	83 ec 0c             	sub    $0xc,%esp
 8049ee4:	ff 75 0c             	pushl  0xc(%ebp)
 8049ee7:	e8 ab 00 00 00       	call   8049f97 <_ZSt12__niter_baseIPP4cardENSt11_Niter_baseIT_E13iterator_typeES4_>
 8049eec:	83 c4 10             	add    $0x10,%esp
 8049eef:	89 c3                	mov    %eax,%ebx
 8049ef1:	83 ec 0c             	sub    $0xc,%esp
 8049ef4:	ff 75 08             	pushl  0x8(%ebp)
 8049ef7:	e8 9b 00 00 00       	call   8049f97 <_ZSt12__niter_baseIPP4cardENSt11_Niter_baseIT_E13iterator_typeES4_>
 8049efc:	83 c4 10             	add    $0x10,%esp
 8049eff:	83 ec 04             	sub    $0x4,%esp
 8049f02:	56                   	push   %esi
 8049f03:	53                   	push   %ebx
 8049f04:	50                   	push   %eax
 8049f05:	e8 a3 00 00 00       	call   8049fad <_ZSt22__copy_move_backward_aILb0EPP4cardS2_ET1_T0_S4_S3_>
 8049f0a:	83 c4 10             	add    $0x10,%esp
 8049f0d:	8d 65 f8             	lea    -0x8(%ebp),%esp
 8049f10:	5b                   	pop    %ebx
 8049f11:	5e                   	pop    %esi
 8049f12:	5d                   	pop    %ebp
 8049f13:	c3                   	ret    

08049f14 <_ZSt3maxIjERKT_S2_S2_>:
 8049f14:	55                   	push   %ebp
 8049f15:	89 e5                	mov    %esp,%ebp
 8049f17:	8b 45 08             	mov    0x8(%ebp),%eax
 8049f1a:	8b 10                	mov    (%eax),%edx
 8049f1c:	8b 45 0c             	mov    0xc(%ebp),%eax
 8049f1f:	8b 00                	mov    (%eax),%eax
 8049f21:	39 c2                	cmp    %eax,%edx
 8049f23:	73 05                	jae    8049f2a <_ZSt3maxIjERKT_S2_S2_+0x16>
 8049f25:	8b 45 0c             	mov    0xc(%ebp),%eax
 8049f28:	eb 03                	jmp    8049f2d <_ZSt3maxIjERKT_S2_S2_+0x19>
 8049f2a:	8b 45 08             	mov    0x8(%ebp),%eax
 8049f2d:	5d                   	pop    %ebp
 8049f2e:	c3                   	ret    
 8049f2f:	90                   	nop

08049f30 <_ZN9__gnu_cxx13new_allocatorIP4cardE7destroyEPS2_>:
 8049f30:	55                   	push   %ebp
 8049f31:	89 e5                	mov    %esp,%ebp
 8049f33:	5d                   	pop    %ebp
 8049f34:	c3                   	ret    
 8049f35:	90                   	nop

08049f36 <_ZN9__gnu_cxx13new_allocatorIP4cardEC1Ev>:
 8049f36:	55                   	push   %ebp
 8049f37:	89 e5                	mov    %esp,%ebp
 8049f39:	5d                   	pop    %ebp
 8049f3a:	c3                   	ret    
 8049f3b:	90                   	nop

08049f3c <_ZN9__gnu_cxx13new_allocatorIP4cardE8allocateEjPKv>:
 8049f3c:	55                   	push   %ebp
 8049f3d:	89 e5                	mov    %esp,%ebp
 8049f3f:	83 ec 08             	sub    $0x8,%esp
 8049f42:	83 ec 0c             	sub    $0xc,%esp
 8049f45:	ff 75 08             	pushl  0x8(%ebp)
 8049f48:	e8 09 ff ff ff       	call   8049e56 <_ZNK9__gnu_cxx13new_allocatorIP4cardE8max_sizeEv>
 8049f4d:	83 c4 10             	add    $0x10,%esp
 8049f50:	3b 45 0c             	cmp    0xc(%ebp),%eax
 8049f53:	0f 92 c0             	setb   %al
 8049f56:	84 c0                	test   %al,%al
 8049f58:	74 05                	je     8049f5f <_ZN9__gnu_cxx13new_allocatorIP4cardE8allocateEjPKv+0x23>
 8049f5a:	e8 71 e9 ff ff       	call   80488d0 <_ZSt17__throw_bad_allocv@plt>
 8049f5f:	8b 45 0c             	mov    0xc(%ebp),%eax
 8049f62:	c1 e0 02             	shl    $0x2,%eax
 8049f65:	83 ec 0c             	sub    $0xc,%esp
 8049f68:	50                   	push   %eax
 8049f69:	e8 02 e9 ff ff       	call   8048870 <_Znwj@plt>
 8049f6e:	83 c4 10             	add    $0x10,%esp
 8049f71:	c9                   	leave  
 8049f72:	c3                   	ret    

08049f73 <_ZNSt20__uninitialized_copyILb1EE13__uninit_copyIPP4cardS4_EET0_T_S6_S5_>:
 8049f73:	55                   	push   %ebp
 8049f74:	89 e5                	mov    %esp,%ebp
 8049f76:	83 ec 08             	sub    $0x8,%esp
 8049f79:	83 ec 04             	sub    $0x4,%esp
 8049f7c:	ff 75 10             	pushl  0x10(%ebp)
 8049f7f:	ff 75 0c             	pushl  0xc(%ebp)
 8049f82:	ff 75 08             	pushl  0x8(%ebp)
 8049f85:	e8 43 00 00 00       	call   8049fcd <_ZSt4copyIPP4cardS2_ET0_T_S4_S3_>
 8049f8a:	83 c4 10             	add    $0x10,%esp
 8049f8d:	c9                   	leave  
 8049f8e:	c3                   	ret    

08049f8f <_ZNSt10_Iter_baseIPP4cardLb0EE7_S_baseES2_>:
 8049f8f:	55                   	push   %ebp
 8049f90:	89 e5                	mov    %esp,%ebp
 8049f92:	8b 45 08             	mov    0x8(%ebp),%eax
 8049f95:	5d                   	pop    %ebp
 8049f96:	c3                   	ret    

08049f97 <_ZSt12__niter_baseIPP4cardENSt11_Niter_baseIT_E13iterator_typeES4_>:
 8049f97:	55                   	push   %ebp
 8049f98:	89 e5                	mov    %esp,%ebp
 8049f9a:	83 ec 08             	sub    $0x8,%esp
 8049f9d:	83 ec 0c             	sub    $0xc,%esp
 8049fa0:	ff 75 08             	pushl  0x8(%ebp)
 8049fa3:	e8 e7 ff ff ff       	call   8049f8f <_ZNSt10_Iter_baseIPP4cardLb0EE7_S_baseES2_>
 8049fa8:	83 c4 10             	add    $0x10,%esp
 8049fab:	c9                   	leave  
 8049fac:	c3                   	ret    

08049fad <_ZSt22__copy_move_backward_aILb0EPP4cardS2_ET1_T0_S4_S3_>:
 8049fad:	55                   	push   %ebp
 8049fae:	89 e5                	mov    %esp,%ebp
 8049fb0:	83 ec 18             	sub    $0x18,%esp
 8049fb3:	c6 45 f7 01          	movb   $0x1,-0x9(%ebp)
 8049fb7:	83 ec 04             	sub    $0x4,%esp
 8049fba:	ff 75 10             	pushl  0x10(%ebp)
 8049fbd:	ff 75 0c             	pushl  0xc(%ebp)
 8049fc0:	ff 75 08             	pushl  0x8(%ebp)
 8049fc3:	e8 3f 00 00 00       	call   804a007 <_ZNSt20__copy_move_backwardILb0ELb1ESt26random_access_iterator_tagE13__copy_move_bIP4cardEEPT_PKS5_S8_S6_>
 8049fc8:	83 c4 10             	add    $0x10,%esp
 8049fcb:	c9                   	leave  
 8049fcc:	c3                   	ret    

08049fcd <_ZSt4copyIPP4cardS2_ET0_T_S4_S3_>:
 8049fcd:	55                   	push   %ebp
 8049fce:	89 e5                	mov    %esp,%ebp
 8049fd0:	53                   	push   %ebx
 8049fd1:	83 ec 04             	sub    $0x4,%esp
 8049fd4:	83 ec 0c             	sub    $0xc,%esp
 8049fd7:	ff 75 0c             	pushl  0xc(%ebp)
 8049fda:	e8 d7 fe ff ff       	call   8049eb6 <_ZSt12__miter_baseIPP4cardENSt11_Miter_baseIT_E13iterator_typeES4_>
 8049fdf:	83 c4 10             	add    $0x10,%esp
 8049fe2:	89 c3                	mov    %eax,%ebx
 8049fe4:	83 ec 0c             	sub    $0xc,%esp
 8049fe7:	ff 75 08             	pushl  0x8(%ebp)
 8049fea:	e8 c7 fe ff ff       	call   8049eb6 <_ZSt12__miter_baseIPP4cardENSt11_Miter_baseIT_E13iterator_typeES4_>
 8049fef:	83 c4 10             	add    $0x10,%esp
 8049ff2:	83 ec 04             	sub    $0x4,%esp
 8049ff5:	ff 75 10             	pushl  0x10(%ebp)
 8049ff8:	53                   	push   %ebx
 8049ff9:	50                   	push   %eax
 8049ffa:	e8 5e 00 00 00       	call   804a05d <_ZSt14__copy_move_a2ILb0EPP4cardS2_ET1_T0_S4_S3_>
 8049fff:	83 c4 10             	add    $0x10,%esp
 804a002:	8b 5d fc             	mov    -0x4(%ebp),%ebx
 804a005:	c9                   	leave  
 804a006:	c3                   	ret    

0804a007 <_ZNSt20__copy_move_backwardILb0ELb1ESt26random_access_iterator_tagE13__copy_move_bIP4cardEEPT_PKS5_S8_S6_>:
 804a007:	55                   	push   %ebp
 804a008:	89 e5                	mov    %esp,%ebp
 804a00a:	83 ec 18             	sub    $0x18,%esp
 804a00d:	8b 55 0c             	mov    0xc(%ebp),%edx
 804a010:	8b 45 08             	mov    0x8(%ebp),%eax
 804a013:	29 c2                	sub    %eax,%edx
 804a015:	89 d0                	mov    %edx,%eax
 804a017:	c1 f8 02             	sar    $0x2,%eax
 804a01a:	89 45 f4             	mov    %eax,-0xc(%ebp)
 804a01d:	83 7d f4 00          	cmpl   $0x0,-0xc(%ebp)
 804a021:	74 29                	je     804a04c <_ZNSt20__copy_move_backwardILb0ELb1ESt26random_access_iterator_tagE13__copy_move_bIP4cardEEPT_PKS5_S8_S6_+0x45>
 804a023:	8b 45 f4             	mov    -0xc(%ebp),%eax
 804a026:	8d 14 85 00 00 00 00 	lea    0x0(,%eax,4),%edx
 804a02d:	8b 45 f4             	mov    -0xc(%ebp),%eax
 804a030:	c1 e0 02             	shl    $0x2,%eax
 804a033:	f7 d8                	neg    %eax
 804a035:	89 c1                	mov    %eax,%ecx
 804a037:	8b 45 10             	mov    0x10(%ebp),%eax
 804a03a:	01 c8                	add    %ecx,%eax
 804a03c:	83 ec 04             	sub    $0x4,%esp
 804a03f:	52                   	push   %edx
 804a040:	ff 75 08             	pushl  0x8(%ebp)
 804a043:	50                   	push   %eax
 804a044:	e8 57 e8 ff ff       	call   80488a0 <memmove@plt>
 804a049:	83 c4 10             	add    $0x10,%esp
 804a04c:	8b 45 f4             	mov    -0xc(%ebp),%eax
 804a04f:	c1 e0 02             	shl    $0x2,%eax
 804a052:	f7 d8                	neg    %eax
 804a054:	89 c2                	mov    %eax,%edx
 804a056:	8b 45 10             	mov    0x10(%ebp),%eax
 804a059:	01 d0                	add    %edx,%eax
 804a05b:	c9                   	leave  
 804a05c:	c3                   	ret    

0804a05d <_ZSt14__copy_move_a2ILb0EPP4cardS2_ET1_T0_S4_S3_>:
 804a05d:	55                   	push   %ebp
 804a05e:	89 e5                	mov    %esp,%ebp
 804a060:	56                   	push   %esi
 804a061:	53                   	push   %ebx
 804a062:	83 ec 0c             	sub    $0xc,%esp
 804a065:	ff 75 10             	pushl  0x10(%ebp)
 804a068:	e8 2a ff ff ff       	call   8049f97 <_ZSt12__niter_baseIPP4cardENSt11_Niter_baseIT_E13iterator_typeES4_>
 804a06d:	83 c4 10             	add    $0x10,%esp
 804a070:	89 c6                	mov    %eax,%esi
 804a072:	83 ec 0c             	sub    $0xc,%esp
 804a075:	ff 75 0c             	pushl  0xc(%ebp)
 804a078:	e8 1a ff ff ff       	call   8049f97 <_ZSt12__niter_baseIPP4cardENSt11_Niter_baseIT_E13iterator_typeES4_>
 804a07d:	83 c4 10             	add    $0x10,%esp
 804a080:	89 c3                	mov    %eax,%ebx
 804a082:	83 ec 0c             	sub    $0xc,%esp
 804a085:	ff 75 08             	pushl  0x8(%ebp)
 804a088:	e8 0a ff ff ff       	call   8049f97 <_ZSt12__niter_baseIPP4cardENSt11_Niter_baseIT_E13iterator_typeES4_>
 804a08d:	83 c4 10             	add    $0x10,%esp
 804a090:	83 ec 04             	sub    $0x4,%esp
 804a093:	56                   	push   %esi
 804a094:	53                   	push   %ebx
 804a095:	50                   	push   %eax
 804a096:	e8 0a 00 00 00       	call   804a0a5 <_ZSt13__copy_move_aILb0EPP4cardS2_ET1_T0_S4_S3_>
 804a09b:	83 c4 10             	add    $0x10,%esp
 804a09e:	8d 65 f8             	lea    -0x8(%ebp),%esp
 804a0a1:	5b                   	pop    %ebx
 804a0a2:	5e                   	pop    %esi
 804a0a3:	5d                   	pop    %ebp
 804a0a4:	c3                   	ret    

0804a0a5 <_ZSt13__copy_move_aILb0EPP4cardS2_ET1_T0_S4_S3_>:
 804a0a5:	55                   	push   %ebp
 804a0a6:	89 e5                	mov    %esp,%ebp
 804a0a8:	83 ec 18             	sub    $0x18,%esp
 804a0ab:	c6 45 f7 01          	movb   $0x1,-0x9(%ebp)
 804a0af:	83 ec 04             	sub    $0x4,%esp
 804a0b2:	ff 75 10             	pushl  0x10(%ebp)
 804a0b5:	ff 75 0c             	pushl  0xc(%ebp)
 804a0b8:	ff 75 08             	pushl  0x8(%ebp)
 804a0bb:	e8 05 00 00 00       	call   804a0c5 <_ZNSt11__copy_moveILb0ELb1ESt26random_access_iterator_tagE8__copy_mIP4cardEEPT_PKS5_S8_S6_>
 804a0c0:	83 c4 10             	add    $0x10,%esp
 804a0c3:	c9                   	leave  
 804a0c4:	c3                   	ret    

0804a0c5 <_ZNSt11__copy_moveILb0ELb1ESt26random_access_iterator_tagE8__copy_mIP4cardEEPT_PKS5_S8_S6_>:
 804a0c5:	55                   	push   %ebp
 804a0c6:	89 e5                	mov    %esp,%ebp
 804a0c8:	83 ec 18             	sub    $0x18,%esp
 804a0cb:	8b 55 0c             	mov    0xc(%ebp),%edx
 804a0ce:	8b 45 08             	mov    0x8(%ebp),%eax
 804a0d1:	29 c2                	sub    %eax,%edx
 804a0d3:	89 d0                	mov    %edx,%eax
 804a0d5:	c1 f8 02             	sar    $0x2,%eax
 804a0d8:	89 45 f4             	mov    %eax,-0xc(%ebp)
 804a0db:	83 7d f4 00          	cmpl   $0x0,-0xc(%ebp)
 804a0df:	74 18                	je     804a0f9 <_ZNSt11__copy_moveILb0ELb1ESt26random_access_iterator_tagE8__copy_mIP4cardEEPT_PKS5_S8_S6_+0x34>
 804a0e1:	8b 45 f4             	mov    -0xc(%ebp),%eax
 804a0e4:	c1 e0 02             	shl    $0x2,%eax
 804a0e7:	83 ec 04             	sub    $0x4,%esp
 804a0ea:	50                   	push   %eax
 804a0eb:	ff 75 08             	pushl  0x8(%ebp)
 804a0ee:	ff 75 10             	pushl  0x10(%ebp)
 804a0f1:	e8 aa e7 ff ff       	call   80488a0 <memmove@plt>
 804a0f6:	83 c4 10             	add    $0x10,%esp
 804a0f9:	8b 45 f4             	mov    -0xc(%ebp),%eax
 804a0fc:	8d 14 85 00 00 00 00 	lea    0x0(,%eax,4),%edx
 804a103:	8b 45 10             	mov    0x10(%ebp),%eax
 804a106:	01 d0                	add    %edx,%eax
 804a108:	c9                   	leave  
 804a109:	c3                   	ret    

0804a10a <_ZNSt6vectorIP4cardSaIS1_EED1Ev>:
 804a10a:	55                   	push   %ebp
 804a10b:	89 e5                	mov    %esp,%ebp
 804a10d:	53                   	push   %ebx
 804a10e:	83 ec 04             	sub    $0x4,%esp
 804a111:	8b 45 08             	mov    0x8(%ebp),%eax
 804a114:	83 ec 0c             	sub    $0xc,%esp
 804a117:	50                   	push   %eax
 804a118:	e8 b9 f7 ff ff       	call   80498d6 <_ZNSt12_Vector_baseIP4cardSaIS1_EE19_M_get_Tp_allocatorEv>
 804a11d:	83 c4 10             	add    $0x10,%esp
 804a120:	89 c1                	mov    %eax,%ecx
 804a122:	8b 45 08             	mov    0x8(%ebp),%eax
 804a125:	8b 50 04             	mov    0x4(%eax),%edx
 804a128:	8b 45 08             	mov    0x8(%ebp),%eax
 804a12b:	8b 00                	mov    (%eax),%eax
 804a12d:	83 ec 04             	sub    $0x4,%esp
 804a130:	51                   	push   %ecx
 804a131:	52                   	push   %edx
 804a132:	50                   	push   %eax
 804a133:	e8 a6 f7 ff ff       	call   80498de <_ZSt8_DestroyIPP4cardS1_EvT_S3_RSaIT0_E>
 804a138:	83 c4 10             	add    $0x10,%esp
 804a13b:	8b 45 08             	mov    0x8(%ebp),%eax
 804a13e:	83 ec 0c             	sub    $0xc,%esp
 804a141:	50                   	push   %eax
 804a142:	e8 55 f6 ff ff       	call   804979c <_ZNSt12_Vector_baseIP4cardSaIS1_EED1Ev>
 804a147:	83 c4 10             	add    $0x10,%esp
 804a14a:	eb 1c                	jmp    804a168 <_ZNSt6vectorIP4cardSaIS1_EED1Ev+0x5e>
 804a14c:	89 c3                	mov    %eax,%ebx
 804a14e:	8b 45 08             	mov    0x8(%ebp),%eax
 804a151:	83 ec 0c             	sub    $0xc,%esp
 804a154:	50                   	push   %eax
 804a155:	e8 42 f6 ff ff       	call   804979c <_ZNSt12_Vector_baseIP4cardSaIS1_EED1Ev>
 804a15a:	83 c4 10             	add    $0x10,%esp
 804a15d:	89 d8                	mov    %ebx,%eax
 804a15f:	83 ec 0c             	sub    $0xc,%esp
 804a162:	50                   	push   %eax
 804a163:	e8 b8 e7 ff ff       	call   8048920 <_Unwind_Resume@plt>
 804a168:	8b 5d fc             	mov    -0x4(%ebp),%ebx
 804a16b:	c9                   	leave  
 804a16c:	c3                   	ret    
 804a16d:	66 90                	xchg   %ax,%ax
 804a16f:	90                   	nop

0804a170 <__libc_csu_init>:
 804a170:	55                   	push   %ebp
 804a171:	57                   	push   %edi
 804a172:	31 ff                	xor    %edi,%edi
 804a174:	56                   	push   %esi
 804a175:	53                   	push   %ebx
 804a176:	e8 f5 e7 ff ff       	call   8048970 <__x86.get_pc_thunk.bx>
 804a17b:	81 c3 d9 27 00 00    	add    $0x27d9,%ebx
 804a181:	83 ec 1c             	sub    $0x1c,%esp
 804a184:	8b 6c 24 30          	mov    0x30(%esp),%ebp
 804a188:	8d b3 f4 fe ff ff    	lea    -0x10c(%ebx),%esi
 804a18e:	e8 e5 e5 ff ff       	call   8048778 <_init>
 804a193:	8d 83 ec fe ff ff    	lea    -0x114(%ebx),%eax
 804a199:	29 c6                	sub    %eax,%esi
 804a19b:	c1 fe 02             	sar    $0x2,%esi
 804a19e:	85 f6                	test   %esi,%esi
 804a1a0:	74 27                	je     804a1c9 <__libc_csu_init+0x59>
 804a1a2:	8d b6 00 00 00 00    	lea    0x0(%esi),%esi
 804a1a8:	8b 44 24 38          	mov    0x38(%esp),%eax
 804a1ac:	89 2c 24             	mov    %ebp,(%esp)
 804a1af:	89 44 24 08          	mov    %eax,0x8(%esp)
 804a1b3:	8b 44 24 34          	mov    0x34(%esp),%eax
 804a1b7:	89 44 24 04          	mov    %eax,0x4(%esp)
 804a1bb:	ff 94 bb ec fe ff ff 	call   *-0x114(%ebx,%edi,4)
 804a1c2:	83 c7 01             	add    $0x1,%edi
 804a1c5:	39 f7                	cmp    %esi,%edi
 804a1c7:	75 df                	jne    804a1a8 <__libc_csu_init+0x38>
 804a1c9:	83 c4 1c             	add    $0x1c,%esp
 804a1cc:	5b                   	pop    %ebx
 804a1cd:	5e                   	pop    %esi
 804a1ce:	5f                   	pop    %edi
 804a1cf:	5d                   	pop    %ebp
 804a1d0:	c3                   	ret    
 804a1d1:	eb 0d                	jmp    804a1e0 <__libc_csu_fini>
 804a1d3:	90                   	nop
 804a1d4:	90                   	nop
 804a1d5:	90                   	nop
 804a1d6:	90                   	nop
 804a1d7:	90                   	nop
 804a1d8:	90                   	nop
 804a1d9:	90                   	nop
 804a1da:	90                   	nop
 804a1db:	90                   	nop
 804a1dc:	90                   	nop
 804a1dd:	90                   	nop
 804a1de:	90                   	nop
 804a1df:	90                   	nop

0804a1e0 <__libc_csu_fini>:
 804a1e0:	f3 c3                	repz ret 

Disassembly of section .fini:

0804a1e4 <_fini>:
 804a1e4:	53                   	push   %ebx
 804a1e5:	83 ec 08             	sub    $0x8,%esp
 804a1e8:	e8 83 e7 ff ff       	call   8048970 <__x86.get_pc_thunk.bx>
 804a1ed:	81 c3 67 27 00 00    	add    $0x2767,%ebx
 804a1f3:	83 c4 08             	add    $0x8,%esp
 804a1f6:	5b                   	pop    %ebx
 804a1f7:	c3                   	ret    

chocolateFrog:     file format elf32-i386
chocolateFrog
architecture: i386, flags 0x00000112:
EXEC_P, HAS_SYMS, D_PAGED
start address 0x08048940

Program Header:
    PHDR off    0x00000034 vaddr 0x08048034 paddr 0x08048034 align 2**2
         filesz 0x00000100 memsz 0x00000100 flags r-x
  INTERP off    0x00000134 vaddr 0x08048134 paddr 0x08048134 align 2**0
         filesz 0x00000013 memsz 0x00000013 flags r--
    LOAD off    0x00000000 vaddr 0x08048000 paddr 0x08048000 align 2**12
         filesz 0x00003840 memsz 0x00003840 flags r-x
    LOAD off    0x00003840 vaddr 0x0804c840 paddr 0x0804c840 align 2**12
         filesz 0x0000018c memsz 0x00000230 flags rw-
 DYNAMIC off    0x00003850 vaddr 0x0804c850 paddr 0x0804c850 align 2**2
         filesz 0x00000100 memsz 0x00000100 flags rw-
    NOTE off    0x00000148 vaddr 0x08048148 paddr 0x08048148 align 2**2
         filesz 0x00000044 memsz 0x00000044 flags r--
EH_FRAME off    0x00002b2c vaddr 0x0804ab2c paddr 0x0804ab2c align 2**2
         filesz 0x0000026c memsz 0x0000026c flags r--
   STACK off    0x00000000 vaddr 0x00000000 paddr 0x00000000 align 2**4
         filesz 0x00000000 memsz 0x00000000 flags rw-

Dynamic Section:
  NEEDED               libstdc++.so.6
  NEEDED               libm.so.6
  NEEDED               libgcc_s.so.1
  NEEDED               libc.so.6
  INIT                 0x08048778
  FINI                 0x0804a1e4
  INIT_ARRAY           0x0804c840
  INIT_ARRAYSZ         0x00000008
  FINI_ARRAY           0x0804c848
  FINI_ARRAYSZ         0x00000004
  GNU_HASH             0x0804818c
  STRTAB               0x080483d0
  SYMTAB               0x080481c0
  STRSZ                0x000001fc
  SYMENT               0x00000010
  DEBUG                0x00000000
  PLTGOT               0x0804c954
  PLTRELSZ             0x000000c8
  PLTREL               0x00000011
  JMPREL               0x080486b0
  REL                  0x08048690
  RELSZ                0x00000020
  RELENT               0x00000008
  VERNEED              0x08048610
  VERNEEDNUM           0x00000003
  VERSYM               0x080485cc

Version References:
  required from libgcc_s.so.1:
    0x0b792650 0x00 06 GCC_3.0
  required from libc.so.6:
    0x09691f73 0x00 04 GLIBC_2.1.3
    0x0d696910 0x00 03 GLIBC_2.0
  required from libstdc++.so.6:
    0x056bafd3 0x00 05 CXXABI_1.3
    0x08922974 0x00 02 GLIBCXX_3.4

Sections:
Idx Name          Size      VMA       LMA       File off  Algn
  0 .interp       00000013  08048134  08048134  00000134  2**0
                  CONTENTS, ALLOC, LOAD, READONLY, DATA
  1 .note.ABI-tag 00000020  08048148  08048148  00000148  2**2
                  CONTENTS, ALLOC, LOAD, READONLY, DATA
  2 .note.gnu.build-id 00000024  08048168  08048168  00000168  2**2
                  CONTENTS, ALLOC, LOAD, READONLY, DATA
  3 .gnu.hash     00000034  0804818c  0804818c  0000018c  2**2
                  CONTENTS, ALLOC, LOAD, READONLY, DATA
  4 .dynsym       00000210  080481c0  080481c0  000001c0  2**2
                  CONTENTS, ALLOC, LOAD, READONLY, DATA
  5 .dynstr       000001fc  080483d0  080483d0  000003d0  2**0
                  CONTENTS, ALLOC, LOAD, READONLY, DATA
  6 .gnu.version  00000042  080485cc  080485cc  000005cc  2**1
                  CONTENTS, ALLOC, LOAD, READONLY, DATA
  7 .gnu.version_r 00000080  08048610  08048610  00000610  2**2
                  CONTENTS, ALLOC, LOAD, READONLY, DATA
  8 .rel.dyn      00000020  08048690  08048690  00000690  2**2
                  CONTENTS, ALLOC, LOAD, READONLY, DATA
  9 .rel.plt      000000c8  080486b0  080486b0  000006b0  2**2
                  CONTENTS, ALLOC, LOAD, READONLY, DATA
 10 .init         00000023  08048778  08048778  00000778  2**2
                  CONTENTS, ALLOC, LOAD, READONLY, CODE
 11 .plt          000001a0  080487a0  080487a0  000007a0  2**4
                  CONTENTS, ALLOC, LOAD, READONLY, CODE
 12 .text         000018a2  08048940  08048940  00000940  2**4
                  CONTENTS, ALLOC, LOAD, READONLY, CODE
 13 .fini         00000014  0804a1e4  0804a1e4  000021e4  2**2
                  CONTENTS, ALLOC, LOAD, READONLY, CODE
 14 .rodata       00000934  0804a1f8  0804a1f8  000021f8  2**3
                  CONTENTS, ALLOC, LOAD, READONLY, DATA
 15 .eh_frame_hdr 0000026c  0804ab2c  0804ab2c  00002b2c  2**2
                  CONTENTS, ALLOC, LOAD, READONLY, DATA
 16 .eh_frame     00000a48  0804ad98  0804ad98  00002d98  2**2
                  CONTENTS, ALLOC, LOAD, READONLY, DATA
 17 .gcc_except_table 00000060  0804b7e0  0804b7e0  000037e0  2**2
                  CONTENTS, ALLOC, LOAD, READONLY, DATA
 18 .init_array   00000008  0804c840  0804c840  00003840  2**2
                  CONTENTS, ALLOC, LOAD, DATA
 19 .fini_array   00000004  0804c848  0804c848  00003848  2**2
                  CONTENTS, ALLOC, LOAD, DATA
 20 .jcr          00000004  0804c84c  0804c84c  0000384c  2**2
                  CONTENTS, ALLOC, LOAD, DATA
 21 .dynamic      00000100  0804c850  0804c850  00003850  2**2
                  CONTENTS, ALLOC, LOAD, DATA
 22 .got          00000004  0804c950  0804c950  00003950  2**2
                  CONTENTS, ALLOC, LOAD, DATA
 23 .got.plt      00000070  0804c954  0804c954  00003954  2**2
                  CONTENTS, ALLOC, LOAD, DATA
 24 .data         00000008  0804c9c4  0804c9c4  000039c4  2**2
                  CONTENTS, ALLOC, LOAD, DATA
 25 .bss          00000090  0804c9e0  0804c9e0  000039cc  2**5
                  ALLOC
 26 .comment      00000039  00000000  00000000  000039cc  2**0
                  CONTENTS, READONLY
SYMBOL TABLE:
08048134 l    d  .interp	00000000              .interp
08048148 l    d  .note.ABI-tag	00000000              .note.ABI-tag
08048168 l    d  .note.gnu.build-id	00000000              .note.gnu.build-id
0804818c l    d  .gnu.hash	00000000              .gnu.hash
080481c0 l    d  .dynsym	00000000              .dynsym
080483d0 l    d  .dynstr	00000000              .dynstr
080485cc l    d  .gnu.version	00000000              .gnu.version
08048610 l    d  .gnu.version_r	00000000              .gnu.version_r
08048690 l    d  .rel.dyn	00000000              .rel.dyn
080486b0 l    d  .rel.plt	00000000              .rel.plt
08048778 l    d  .init	00000000              .init
080487a0 l    d  .plt	00000000              .plt
08048940 l    d  .text	00000000              .text
0804a1e4 l    d  .fini	00000000              .fini
0804a1f8 l    d  .rodata	00000000              .rodata
0804ab2c l    d  .eh_frame_hdr	00000000              .eh_frame_hdr
0804ad98 l    d  .eh_frame	00000000              .eh_frame
0804b7e0 l    d  .gcc_except_table	00000000              .gcc_except_table
0804c840 l    d  .init_array	00000000              .init_array
0804c848 l    d  .fini_array	00000000              .fini_array
0804c84c l    d  .jcr	00000000              .jcr
0804c850 l    d  .dynamic	00000000              .dynamic
0804c950 l    d  .got	00000000              .got
0804c954 l    d  .got.plt	00000000              .got.plt
0804c9c4 l    d  .data	00000000              .data
0804c9e0 l    d  .bss	00000000              .bss
00000000 l    d  .comment	00000000              .comment
00000000 l    df *ABS*	00000000              crtstuff.c
0804c84c l     O .jcr	00000000              __JCR_LIST__
08048980 l     F .text	00000000              deregister_tm_clones
080489b0 l     F .text	00000000              register_tm_clones
080489f0 l     F .text	00000000              __do_global_dtors_aux
0804ca24 l     O .bss	00000001              completed.6279
0804c848 l     O .fini_array	00000000              __do_global_dtors_aux_fini_array_entry
08048a10 l     F .text	00000000              frame_dummy
0804c840 l     O .init_array	00000000              __frame_dummy_init_array_entry
00000000 l    df *ABS*	00000000              chocolateFrog.cpp
0804949e l     F .text	00000041              _Z41__static_initialization_and_destruction_0ii
080494df l     F .text	0000001a              _GLOBAL__sub_I_key
00000000 l    df *ABS*	00000000              crtstuff.c
0804b7dc l     O .eh_frame	00000000              __FRAME_END__
0804c84c l     O .jcr	00000000              __JCR_END__
00000000 l    df *ABS*	00000000              
0804c954 l     O .got.plt	00000000              _GLOBAL_OFFSET_TABLE_
0804c848 l       .init_array	00000000              __init_array_end
0804c840 l       .init_array	00000000              __init_array_start
0804c850 l     O .dynamic	00000000              _DYNAMIC
0804c9c4  w      .data	00000000              data_start
08049fad  w    F .text	00000020              _ZSt22__copy_move_backward_aILb0EPP4cardS2_ET1_T0_S4_S3_
00000000       F *UND*	00000000              _ZSt20__throw_length_errorPKc@@GLIBCXX_3.4
08049fcd  w    F .text	0000003a              _ZSt4copyIPP4cardS2_ET0_T_S4_S3_
00000000       F *UND*	00000000              srand@@GLIBC_2.0
00000000       F *UND*	00000000              open@@GLIBC_2.0
0804ca64 g     O .bss	0000000c              deck
080495d2  w    F .text	0000000a              _ZNK9__gnu_cxx17__normal_iteratorIPP4cardSt6vectorIS2_SaIS2_EEEdeEv
08049e3a  w    F .text	00000016              _ZNSaIP4cardEC1Ev
00000000       F *UND*	00000000              setbuf@@GLIBC_2.0
00000000       F *UND*	00000000              __cxa_atexit@@GLIBC_2.1.3
08049548  w    F .text	0000001f              _ZNSt6vectorIP4cardSaIS1_EE5beginEv
0804979c  w    F .text	00000064              _ZNSt12_Vector_baseIP4cardSaIS1_EED1Ev
0804a1e0 g     F .text	00000002              __libc_csu_fini
08048940 g     F .text	00000000              _start
08049c38  w    F .text	00000008              _ZNKSt12_Vector_baseIP4cardSaIS1_EE19_M_get_Tp_allocatorEv
0804ab10  w    O .rodata	0000000c              _ZTV4card
08049e04  w    F .text	0000001c              _ZSt34__uninitialized_move_if_noexcept_aIPP4cardS2_SaIS1_EET0_T_S5_S4_RT1_
00000000  w      *UND*	00000000              __gmon_start__
00000000  w      *UND*	00000000              _Jv_RegisterClasses
080491f6 g     F .text	000000e8              _Z9read_cardv
0804a1f8 g     O .rodata	00000004              _fp_hw
00000000       F *UND*	00000000              _ZdlPv@@GLIBCXX_3.4
08049f97  w    F .text	00000016              _ZSt12__niter_baseIPP4cardENSt11_Niter_baseIT_E13iterator_typeES4_
0804976e  w    F .text	00000016              _ZNSt12_Vector_baseIP4cardSaIS1_EE12_Vector_implD1Ev
08049f36  w    F .text	00000005              _ZN9__gnu_cxx13new_allocatorIP4cardEC1Ev
08049c67  w    F .text	0000001c              _ZSt22__uninitialized_copy_aIPP4cardS2_S1_ET0_T_S4_S3_RSaIT1_E
0804a1e4 g     F .fini	00000000              _fini
00000000       F *UND*	00000000              __cxa_rethrow@@CXXABI_1.3
08049eb6  w    F .text	00000016              _ZSt12__miter_baseIPP4cardENSt11_Miter_baseIT_E13iterator_typeES4_
08049c83  w    F .text	00000019              _ZSt8_DestroyIPP4cardEvT_S3_
0804a05d  w    F .text	00000048              _ZSt14__copy_move_a2ILb0EPP4cardS2_ET1_T0_S4_S3_
08049530  w    F .text	00000017              _ZNSt6vectorIP4cardSaIS1_EEC2Ev
00000000       F *UND*	00000000              fgets@@GLIBC_2.0
080495f6  w    F .text	00000012              _ZNSt6vectorIP4cardSaIS1_EEixEj
08049e9b  w    F .text	00000005              _ZNSt12_Destroy_auxILb1EE9__destroyIPP4cardEEvT_S5_
08049c9c  w    F .text	0000001c              _ZN9__gnu_cxx14__alloc_traitsISaIP4cardEE10deallocateERS3_PS2_j
00000000       F *UND*	00000000              __libc_start_main@@GLIBC_2.0
08049810  w    F .text	00000008              _ZNK9__gnu_cxx17__normal_iteratorIPP4cardSt6vectorIS2_SaIS2_EEE4baseEv
08049706  w    F .text	00000068              _ZNSt6vectorIP4cardSaIS1_EE9push_backERKS1_
08049105 g     F .text	000000f1              _Z6renamev
0804a10a  w    F .text	00000063              _ZNSt6vectorIP4cardSaIS1_EED2Ev
08049818  w    F .text	00000023              _ZNKSt6vectorIP4cardSaIS1_EE8max_sizeEv
08049568  w    F .text	00000022              _ZNSt6vectorIP4cardSaIS1_EE3endEv
08049cdc  w    F .text	0000003a              _ZSt13copy_backwardIPP4cardS2_ET0_T_S4_S3_
00000000       F *UND*	00000000              read@@GLIBC_2.0
00000000  w      *UND*	00000000              _ITM_deregisterTMCloneTable
080495bc  w    F .text	00000015              _ZN9__gnu_cxx17__normal_iteratorIPP4cardSt6vectorIS2_SaIS2_EEEppEv
08049dcf  w    F .text	00000035              _ZN9__gnu_cxxmiIPP4cardSt6vectorIS2_SaIS2_EEEENS_17__normal_iteratorIT_T0_E15difference_typeERKSA_SD_
0804a1fc g     O .rodata	00000004              _IO_stdin_used
080494f9  w    F .text	00000008              _ZnwjPv
080495dc  w    F .text	00000019              _ZNKSt6vectorIP4cardSaIS1_EE4sizeEv
08049784  w    F .text	00000017              _ZNSt12_Vector_baseIP4cardSaIS1_EEC1Ev
08049522  w    F .text	0000000e              _ZN4cardC1Ev
08049ea0  w    F .text	00000016              _ZN9__gnu_cxx13new_allocatorIP4cardE10deallocateEPS2_j
00000000  w      *UND*	00000000              _ITM_registerTMCloneTable
0804c9c4 g       .data	00000000              __data_start
08048f51 g     F .text	0000008d              _Z10show_cardsv
08049e50  w    F .text	00000005              _ZN9__gnu_cxx13new_allocatorIP4cardED1Ev
08049e60  w    F .text	0000001b              _ZN9__gnu_cxx14__alloc_traitsISaIP4cardEE8allocateERS3_j
08049c0c  w    F .text	00000016              _ZNSaIP4cardED1Ev
08049f8f  w    F .text	00000008              _ZNSt10_Iter_baseIPP4cardLb0EE7_S_baseES2_
08049e3a  w    F .text	00000016              _ZNSaIP4cardEC2Ev
0804979c  w    F .text	00000064              _ZNSt12_Vector_baseIP4cardSaIS1_EED2Ev
08049d16  w    F .text	000000b9              _ZNKSt6vectorIP4cardSaIS1_EE12_M_check_lenEjPKc
0804c9e0  w    O .bss	0000002c              _ZTVN10__cxxabiv117__class_type_infoE@@CXXABI_1.3
0804991b  w    F .text	0000001c              _ZN9__gnu_cxx14__alloc_traitsISaIP4cardEE9constructIS2_EEvRS3_PS2_RKT_
08048970 g     F .text	00000004              .hidden __x86.get_pc_thunk.bx
08049bd8  w    F .text	00000033              _ZNSt12_Vector_baseIP4cardSaIS1_EE12_Vector_implC1Ev
08049938  w    F .text	000002a0              _ZNSt6vectorIP4cardSaIS1_EE13_M_insert_auxEN9__gnu_cxx17__normal_iteratorIPS1_S3_EERKS1_
08049f30  w    F .text	00000005              _ZN9__gnu_cxx13new_allocatorIP4cardE7destroyEPS2_
0804c9cc g     O .data	00000000              .hidden __TMC_END__
08048b0f g     F .text	00000038              _Z7welcomev
0804c9c8 g     O .data	00000000              .hidden __dso_handle
0804a170 g     F .text	00000061              __libc_csu_init
0804958a  w    F .text	00000031              _ZN9__gnu_cxxneIPP4cardSt6vectorIS2_SaIS2_EEEEbRKNS_17__normal_iteratorIT_T0_EESC_
00000000       F *UND*	00000000              printf@@GLIBC_2.0
08049c0c  w    F .text	00000016              _ZNSaIP4cardED2Ev
08049800  w    F .text	0000000f              _ZN9__gnu_cxx17__normal_iteratorIPP4cardSt6vectorIS2_SaIS2_EEEC2ERKS3_
0804a0a5  w    F .text	00000020              _ZSt13__copy_move_aILb0EPP4cardS2_ET1_T0_S4_S3_
08049856  w    F .text	0000007f              _ZNSt6vectorIP4cardSaIS1_EE20_M_allocate_and_copyIPS1_EES5_jT_S6_
00000000       F *UND*	00000000              _Znwj@@GLIBCXX_3.4
08049530  w    F .text	00000017              _ZNSt6vectorIP4cardSaIS1_EEC1Ev
08048a3b g     F .text	000000d4              _Z13get_your_flagv
08049c22  w    F .text	00000016              _ZN9__gnu_cxx14__alloc_traitsISaIP4cardEE8max_sizeERKS3_
00000000       F *UND*	00000000              close@@GLIBC_2.0
0804a10a  w    F .text	00000063              _ZNSt6vectorIP4cardSaIS1_EED1Ev
0804983c  w    F .text	00000019              _ZNKSt6vectorIP4cardSaIS1_EE8capacityEv
00000000       F *UND*	00000000              time@@GLIBC_2.0
0804ca40 g     O .bss	00000021              key
0804c9cc g       .bss	00000000              __bss_start
08049f14  w    F .text	0000001b              _ZSt3maxIjERKT_S2_S2_
08049cb8  w    F .text	00000024              _ZN9__gnu_cxx13new_allocatorIP4cardE9constructEPS2_RKS2_
08049784  w    F .text	00000017              _ZNSt12_Vector_baseIP4cardSaIS1_EEC2Ev
0804a007  w    F .text	00000056              _ZNSt20__copy_move_backwardILb0ELb1ESt26random_access_iterator_tagE13__copy_move_bIP4cardEEPT_PKS5_S8_S6_
08049e56  w    F .text	0000000a              _ZNK9__gnu_cxx13new_allocatorIP4cardE8max_sizeEv
0804976e  w    F .text	00000016              _ZNSt12_Vector_baseIP4cardSaIS1_EE12_Vector_implD2Ev
08049e50  w    F .text	00000005              _ZN9__gnu_cxx13new_allocatorIP4cardED2Ev
0804ca0c g     O .bss	00000004              stdin@@GLIBC_2.0
08049e20  w    F .text	00000019              _ZN9__gnu_cxx14__alloc_traitsISaIP4cardEE7destroyERS3_PS2_
080498d6  w    F .text	00000008              _ZNSt12_Vector_baseIP4cardSaIS1_EE19_M_get_Tp_allocatorEv
08049800  w    F .text	0000000f              _ZN9__gnu_cxx17__normal_iteratorIPP4cardSt6vectorIS2_SaIS2_EEEC1ERKS3_
0804a0c5  w    F .text	00000045              _ZNSt11__copy_moveILb0ELb1ESt26random_access_iterator_tagE8__copy_mIP4cardEEPT_PKS5_S8_S6_
00000000       F *UND*	00000000              memmove@@GLIBC_2.0
0804ca70 g       .bss	00000000              _end
0804ca20 g     O .bss	00000004              stdout@@GLIBC_2.0
00000000       F *UND*	00000000              puts@@GLIBC_2.0
08049f36  w    F .text	00000005              _ZN9__gnu_cxx13new_allocatorIP4cardEC2Ev
08049bd8  w    F .text	00000033              _ZNSt12_Vector_baseIP4cardSaIS1_EE12_Vector_implC2Ev
080498f8  w    F .text	00000023              _ZNSt12_Vector_baseIP4cardSaIS1_EE13_M_deallocateEPS1_j
00000000       F *UND*	00000000              __cxa_end_catch@@CXXABI_1.3
00000000       F *UND*	00000000              _ZSt17__throw_bad_allocv@@GLIBCXX_3.4
00000000       F *UND*	00000000              rand@@GLIBC_2.0
00000000       F *UND*	00000000              sscanf@@GLIBC_2.0
08049e7b  w    F .text	00000020              _ZSt18uninitialized_copyIPP4cardS2_ET0_T_S4_S3_
00000000       F *UND*	00000000              __cxa_begin_catch@@CXXABI_1.3
0804c9cc g       .data	00000000              _edata
08048910       F *UND*	00000000              __gxx_personality_v0@@CXXABI_1.3
080498de  w    F .text	00000019              _ZSt8_DestroyIPP4cardS1_EvT_S3_RSaIT0_E
08049608  w    F .text	000000fe              _ZNSt6vectorIP4cardSaIS1_EE7reserveEj
08049ecc  w    F .text	00000048              _ZSt23__copy_move_backward_a2ILb0EPP4cardS2_ET1_T0_S4_S3_
00000000       F *UND*	00000000              _Unwind_Resume@@GCC_3.0
08048fde g     F .text	00000127              _Z11print_addrsv
08049f73  w    F .text	0000001c              _ZNSt20__uninitialized_copyILb1EE13__uninit_copyIPP4cardS4_EET0_T_S6_S5_
00000000       F *UND*	00000000              exit@@GLIBC_2.0
08049502  w    F .text	0000001f              _ZN4card9read_factEv
0804ab24  w    O .rodata	00000008              _ZTI4card
0804ab1c  w    O .rodata	00000006              _ZTS4card
08049c40  w    F .text	00000027              _ZNSt12_Vector_baseIP4cardSaIS1_EE11_M_allocateEj
08049522  w    F .text	0000000e              _ZN4cardC2Ev
080492de g     F .text	000001c0              main
08048778 g     F .init	00000000              _init
08049f3c  w    F .text	00000037              _ZN9__gnu_cxx13new_allocatorIP4cardE8allocateEjPKv
08048b47 g     F .text	0000040a              _Z12collect_cardv


